
./bomb:     file format elf64-x86-64


Disassembly of section .init:

0000000000002000 <_init>:
    2000:	f3 0f 1e fa          	repz nop %edx
    2004:	48 83 ec 08          	sub    $0x8,%rsp
    2008:	48 8b 05 d9 3f 00 00 	mov    0x3fd9(%rip),%rax        # 5fe8 <__gmon_start__>
    200f:	48 85 c0             	test   %rax,%rax
    2012:	74 02                	je     2016 <_init+0x16>
    2014:	ff d0                	callq  *%rax
    2016:	48 83 c4 08          	add    $0x8,%rsp
    201a:	c3                   	retq   

Disassembly of section .plt:

0000000000002020 <getenv@plt-0x10>:
    2020:	ff 35 e2 3f 00 00    	pushq  0x3fe2(%rip)        # 6008 <_GLOBAL_OFFSET_TABLE_+0x8>
    2026:	ff 25 e4 3f 00 00    	jmpq   *0x3fe4(%rip)        # 6010 <_GLOBAL_OFFSET_TABLE_+0x10>
    202c:	0f 1f 40 00          	nopl   0x0(%rax)

0000000000002030 <getenv@plt>:
    2030:	ff 25 e2 3f 00 00    	jmpq   *0x3fe2(%rip)        # 6018 <getenv@GLIBC_2.2.5>
    2036:	68 00 00 00 00       	pushq  $0x0
    203b:	e9 e0 ff ff ff       	jmpq   2020 <_init+0x20>

0000000000002040 <strcasecmp@plt>:
    2040:	ff 25 da 3f 00 00    	jmpq   *0x3fda(%rip)        # 6020 <strcasecmp@GLIBC_2.2.5>
    2046:	68 01 00 00 00       	pushq  $0x1
    204b:	e9 d0 ff ff ff       	jmpq   2020 <_init+0x20>

0000000000002050 <__errno_location@plt>:
    2050:	ff 25 d2 3f 00 00    	jmpq   *0x3fd2(%rip)        # 6028 <__errno_location@GLIBC_2.2.5>
    2056:	68 02 00 00 00       	pushq  $0x2
    205b:	e9 c0 ff ff ff       	jmpq   2020 <_init+0x20>

0000000000002060 <strcpy@plt>:
    2060:	ff 25 ca 3f 00 00    	jmpq   *0x3fca(%rip)        # 6030 <strcpy@GLIBC_2.2.5>
    2066:	68 03 00 00 00       	pushq  $0x3
    206b:	e9 b0 ff ff ff       	jmpq   2020 <_init+0x20>

0000000000002070 <puts@plt>:
    2070:	ff 25 c2 3f 00 00    	jmpq   *0x3fc2(%rip)        # 6038 <puts@GLIBC_2.2.5>
    2076:	68 04 00 00 00       	pushq  $0x4
    207b:	e9 a0 ff ff ff       	jmpq   2020 <_init+0x20>

0000000000002080 <write@plt>:
    2080:	ff 25 ba 3f 00 00    	jmpq   *0x3fba(%rip)        # 6040 <write@GLIBC_2.2.5>
    2086:	68 05 00 00 00       	pushq  $0x5
    208b:	e9 90 ff ff ff       	jmpq   2020 <_init+0x20>

0000000000002090 <strlen@plt>:
    2090:	ff 25 b2 3f 00 00    	jmpq   *0x3fb2(%rip)        # 6048 <strlen@GLIBC_2.2.5>
    2096:	68 06 00 00 00       	pushq  $0x6
    209b:	e9 80 ff ff ff       	jmpq   2020 <_init+0x20>

00000000000020a0 <__stack_chk_fail@plt>:
    20a0:	ff 25 aa 3f 00 00    	jmpq   *0x3faa(%rip)        # 6050 <__stack_chk_fail@GLIBC_2.4>
    20a6:	68 07 00 00 00       	pushq  $0x7
    20ab:	e9 70 ff ff ff       	jmpq   2020 <_init+0x20>

00000000000020b0 <printf@plt>:
    20b0:	ff 25 a2 3f 00 00    	jmpq   *0x3fa2(%rip)        # 6058 <printf@GLIBC_2.2.5>
    20b6:	68 08 00 00 00       	pushq  $0x8
    20bb:	e9 60 ff ff ff       	jmpq   2020 <_init+0x20>

00000000000020c0 <alarm@plt>:
    20c0:	ff 25 9a 3f 00 00    	jmpq   *0x3f9a(%rip)        # 6060 <alarm@GLIBC_2.2.5>
    20c6:	68 09 00 00 00       	pushq  $0x9
    20cb:	e9 50 ff ff ff       	jmpq   2020 <_init+0x20>

00000000000020d0 <close@plt>:
    20d0:	ff 25 92 3f 00 00    	jmpq   *0x3f92(%rip)        # 6068 <close@GLIBC_2.2.5>
    20d6:	68 0a 00 00 00       	pushq  $0xa
    20db:	e9 40 ff ff ff       	jmpq   2020 <_init+0x20>

00000000000020e0 <read@plt>:
    20e0:	ff 25 8a 3f 00 00    	jmpq   *0x3f8a(%rip)        # 6070 <read@GLIBC_2.2.5>
    20e6:	68 0b 00 00 00       	pushq  $0xb
    20eb:	e9 30 ff ff ff       	jmpq   2020 <_init+0x20>

00000000000020f0 <fgets@plt>:
    20f0:	ff 25 82 3f 00 00    	jmpq   *0x3f82(%rip)        # 6078 <fgets@GLIBC_2.2.5>
    20f6:	68 0c 00 00 00       	pushq  $0xc
    20fb:	e9 20 ff ff ff       	jmpq   2020 <_init+0x20>

0000000000002100 <strcmp@plt>:
    2100:	ff 25 7a 3f 00 00    	jmpq   *0x3f7a(%rip)        # 6080 <strcmp@GLIBC_2.2.5>
    2106:	68 0d 00 00 00       	pushq  $0xd
    210b:	e9 10 ff ff ff       	jmpq   2020 <_init+0x20>

0000000000002110 <signal@plt>:
    2110:	ff 25 72 3f 00 00    	jmpq   *0x3f72(%rip)        # 6088 <signal@GLIBC_2.2.5>
    2116:	68 0e 00 00 00       	pushq  $0xe
    211b:	e9 00 ff ff ff       	jmpq   2020 <_init+0x20>

0000000000002120 <gethostbyname@plt>:
    2120:	ff 25 6a 3f 00 00    	jmpq   *0x3f6a(%rip)        # 6090 <gethostbyname@GLIBC_2.2.5>
    2126:	68 0f 00 00 00       	pushq  $0xf
    212b:	e9 f0 fe ff ff       	jmpq   2020 <_init+0x20>

0000000000002130 <fprintf@plt>:
    2130:	ff 25 62 3f 00 00    	jmpq   *0x3f62(%rip)        # 6098 <fprintf@GLIBC_2.2.5>
    2136:	68 10 00 00 00       	pushq  $0x10
    213b:	e9 e0 fe ff ff       	jmpq   2020 <_init+0x20>

0000000000002140 <fflush@plt>:
    2140:	ff 25 5a 3f 00 00    	jmpq   *0x3f5a(%rip)        # 60a0 <fflush@GLIBC_2.2.5>
    2146:	68 11 00 00 00       	pushq  $0x11
    214b:	e9 d0 fe ff ff       	jmpq   2020 <_init+0x20>

0000000000002150 <__isoc99_sscanf@plt>:
    2150:	ff 25 52 3f 00 00    	jmpq   *0x3f52(%rip)        # 60a8 <__isoc99_sscanf@GLIBC_2.7>
    2156:	68 12 00 00 00       	pushq  $0x12
    215b:	e9 c0 fe ff ff       	jmpq   2020 <_init+0x20>

0000000000002160 <memmove@plt>:
    2160:	ff 25 4a 3f 00 00    	jmpq   *0x3f4a(%rip)        # 60b0 <memmove@GLIBC_2.2.5>
    2166:	68 13 00 00 00       	pushq  $0x13
    216b:	e9 b0 fe ff ff       	jmpq   2020 <_init+0x20>

0000000000002170 <fopen@plt>:
    2170:	ff 25 42 3f 00 00    	jmpq   *0x3f42(%rip)        # 60b8 <fopen@GLIBC_2.2.5>
    2176:	68 14 00 00 00       	pushq  $0x14
    217b:	e9 a0 fe ff ff       	jmpq   2020 <_init+0x20>

0000000000002180 <gethostname@plt>:
    2180:	ff 25 3a 3f 00 00    	jmpq   *0x3f3a(%rip)        # 60c0 <gethostname@GLIBC_2.2.5>
    2186:	68 15 00 00 00       	pushq  $0x15
    218b:	e9 90 fe ff ff       	jmpq   2020 <_init+0x20>

0000000000002190 <sprintf@plt>:
    2190:	ff 25 32 3f 00 00    	jmpq   *0x3f32(%rip)        # 60c8 <sprintf@GLIBC_2.2.5>
    2196:	68 16 00 00 00       	pushq  $0x16
    219b:	e9 80 fe ff ff       	jmpq   2020 <_init+0x20>

00000000000021a0 <exit@plt>:
    21a0:	ff 25 2a 3f 00 00    	jmpq   *0x3f2a(%rip)        # 60d0 <exit@GLIBC_2.2.5>
    21a6:	68 17 00 00 00       	pushq  $0x17
    21ab:	e9 70 fe ff ff       	jmpq   2020 <_init+0x20>

00000000000021b0 <connect@plt>:
    21b0:	ff 25 22 3f 00 00    	jmpq   *0x3f22(%rip)        # 60d8 <connect@GLIBC_2.2.5>
    21b6:	68 18 00 00 00       	pushq  $0x18
    21bb:	e9 60 fe ff ff       	jmpq   2020 <_init+0x20>

00000000000021c0 <sleep@plt>:
    21c0:	ff 25 1a 3f 00 00    	jmpq   *0x3f1a(%rip)        # 60e0 <sleep@GLIBC_2.2.5>
    21c6:	68 19 00 00 00       	pushq  $0x19
    21cb:	e9 50 fe ff ff       	jmpq   2020 <_init+0x20>

00000000000021d0 <__ctype_b_loc@plt>:
    21d0:	ff 25 12 3f 00 00    	jmpq   *0x3f12(%rip)        # 60e8 <__ctype_b_loc@GLIBC_2.3>
    21d6:	68 1a 00 00 00       	pushq  $0x1a
    21db:	e9 40 fe ff ff       	jmpq   2020 <_init+0x20>

00000000000021e0 <socket@plt>:
    21e0:	ff 25 0a 3f 00 00    	jmpq   *0x3f0a(%rip)        # 60f0 <socket@GLIBC_2.2.5>
    21e6:	68 1b 00 00 00       	pushq  $0x1b
    21eb:	e9 30 fe ff ff       	jmpq   2020 <_init+0x20>

Disassembly of section .text:

00000000000021f0 <_start>:
    21f0:	f3 0f 1e fa          	repz nop %edx
    21f4:	31 ed                	xor    %ebp,%ebp
    21f6:	49 89 d1             	mov    %rdx,%r9
    21f9:	5e                   	pop    %rsi
    21fa:	48 89 e2             	mov    %rsp,%rdx
    21fd:	48 83 e4 f0          	and    $0xfffffffffffffff0,%rsp
    2201:	50                   	push   %rax
    2202:	54                   	push   %rsp
    2203:	4c 8d 05 96 19 00 00 	lea    0x1996(%rip),%r8        # 3ba0 <__libc_csu_fini>
    220a:	48 8d 0d 1f 19 00 00 	lea    0x191f(%rip),%rcx        # 3b30 <__libc_csu_init>
    2211:	48 8d 3d d1 00 00 00 	lea    0xd1(%rip),%rdi        # 22e9 <main>
    2218:	ff 15 c2 3d 00 00    	callq  *0x3dc2(%rip)        # 5fe0 <__libc_start_main@GLIBC_2.2.5>
    221e:	f4                   	hlt    
    221f:	90                   	nop

0000000000002220 <deregister_tm_clones>:
    2220:	48 8d 3d 99 e5 00 00 	lea    0xe599(%rip),%rdi        # 107c0 <stdout@@GLIBC_2.2.5>
    2227:	48 8d 05 92 e5 00 00 	lea    0xe592(%rip),%rax        # 107c0 <stdout@@GLIBC_2.2.5>
    222e:	48 39 f8             	cmp    %rdi,%rax
    2231:	74 15                	je     2248 <deregister_tm_clones+0x28>
    2233:	48 8b 05 9e 3d 00 00 	mov    0x3d9e(%rip),%rax        # 5fd8 <_ITM_deregisterTMCloneTable>
    223a:	48 85 c0             	test   %rax,%rax
    223d:	74 09                	je     2248 <deregister_tm_clones+0x28>
    223f:	ff e0                	jmpq   *%rax
    2241:	0f 1f 80 00 00 00 00 	nopl   0x0(%rax)
    2248:	c3                   	retq   
    2249:	0f 1f 80 00 00 00 00 	nopl   0x0(%rax)

0000000000002250 <register_tm_clones>:
    2250:	48 8d 3d 69 e5 00 00 	lea    0xe569(%rip),%rdi        # 107c0 <stdout@@GLIBC_2.2.5>
    2257:	48 8d 35 62 e5 00 00 	lea    0xe562(%rip),%rsi        # 107c0 <stdout@@GLIBC_2.2.5>
    225e:	48 29 fe             	sub    %rdi,%rsi
    2261:	48 89 f0             	mov    %rsi,%rax
    2264:	48 c1 ee 3f          	shr    $0x3f,%rsi
    2268:	48 c1 f8 03          	sar    $0x3,%rax
    226c:	48 01 c6             	add    %rax,%rsi
    226f:	48 d1 fe             	sar    %rsi
    2272:	74 14                	je     2288 <register_tm_clones+0x38>
    2274:	48 8b 05 75 3d 00 00 	mov    0x3d75(%rip),%rax        # 5ff0 <_ITM_registerTMCloneTable>
    227b:	48 85 c0             	test   %rax,%rax
    227e:	74 08                	je     2288 <register_tm_clones+0x38>
    2280:	ff e0                	jmpq   *%rax
    2282:	66 0f 1f 44 00 00    	nopw   0x0(%rax,%rax,1)
    2288:	c3                   	retq   
    2289:	0f 1f 80 00 00 00 00 	nopl   0x0(%rax)

0000000000002290 <__do_global_dtors_aux>:
    2290:	f3 0f 1e fa          	repz nop %edx
    2294:	80 3d 4d e5 00 00 00 	cmpb   $0x0,0xe54d(%rip)        # 107e8 <completed.0>
    229b:	75 33                	jne    22d0 <__do_global_dtors_aux+0x40>
    229d:	55                   	push   %rbp
    229e:	48 83 3d 52 3d 00 00 	cmpq   $0x0,0x3d52(%rip)        # 5ff8 <__cxa_finalize@GLIBC_2.2.5>
    22a5:	00 
    22a6:	48 89 e5             	mov    %rsp,%rbp
    22a9:	74 0d                	je     22b8 <__do_global_dtors_aux+0x28>
    22ab:	48 8b 3d 56 3e 00 00 	mov    0x3e56(%rip),%rdi        # 6108 <__dso_handle>
    22b2:	ff 15 40 3d 00 00    	callq  *0x3d40(%rip)        # 5ff8 <__cxa_finalize@GLIBC_2.2.5>
    22b8:	e8 63 ff ff ff       	callq  2220 <deregister_tm_clones>
    22bd:	c6 05 24 e5 00 00 01 	movb   $0x1,0xe524(%rip)        # 107e8 <completed.0>
    22c4:	5d                   	pop    %rbp
    22c5:	c3                   	retq   
    22c6:	66 2e 0f 1f 84 00 00 	nopw   %cs:0x0(%rax,%rax,1)
    22cd:	00 00 00 
    22d0:	c3                   	retq   
    22d1:	66 66 2e 0f 1f 84 00 	data16 nopw %cs:0x0(%rax,%rax,1)
    22d8:	00 00 00 00 
    22dc:	0f 1f 40 00          	nopl   0x0(%rax)

00000000000022e0 <frame_dummy>:
    22e0:	f3 0f 1e fa          	repz nop %edx
    22e4:	e9 67 ff ff ff       	jmpq   2250 <register_tm_clones>

00000000000022e9 <main>:
    22e9:	53                   	push   %rbx
    22ea:	83 ff 01             	cmp    $0x1,%edi
    22ed:	0f 84 f8 00 00 00    	je     23eb <main+0x102>
    22f3:	48 89 f3             	mov    %rsi,%rbx
    22f6:	83 ff 02             	cmp    $0x2,%edi
    22f9:	0f 85 1c 01 00 00    	jne    241b <main+0x132>
    22ff:	48 8b 7e 08          	mov    0x8(%rsi),%rdi
    2303:	48 8d 35 fa 1c 00 00 	lea    0x1cfa(%rip),%rsi        # 4004 <_IO_stdin_used+0x4>
    230a:	e8 61 fe ff ff       	callq  2170 <fopen@plt>
    230f:	48 89 05 da e4 00 00 	mov    %rax,0xe4da(%rip)        # 107f0 <infile>
    2316:	48 85 c0             	test   %rax,%rax
    2319:	0f 84 df 00 00 00    	je     23fe <main+0x115>
    231f:	e8 91 06 00 00       	callq  29b5 <initialize_bomb>
    2324:	48 8d 3d 55 1d 00 00 	lea    0x1d55(%rip),%rdi        # 4080 <_IO_stdin_used+0x80>
    232b:	e8 40 fd ff ff       	callq  2070 <puts@plt>
    2330:	48 8d 3d 89 1d 00 00 	lea    0x1d89(%rip),%rdi        # 40c0 <_IO_stdin_used+0xc0>
    2337:	e8 34 fd ff ff       	callq  2070 <puts@plt>
    233c:	e8 f5 09 00 00       	callq  2d36 <read_line>
    2341:	48 89 c7             	mov    %rax,%rdi
    2344:	e8 f0 00 00 00       	callq  2439 <phase_1>
    2349:	e8 22 0b 00 00       	callq  2e70 <phase_defused>
    234e:	48 8d 3d 9b 1d 00 00 	lea    0x1d9b(%rip),%rdi        # 40f0 <_IO_stdin_used+0xf0>
    2355:	e8 16 fd ff ff       	callq  2070 <puts@plt>
    235a:	e8 d7 09 00 00       	callq  2d36 <read_line>
    235f:	48 89 c7             	mov    %rax,%rdi
    2362:	e8 f2 00 00 00       	callq  2459 <phase_2>
    2367:	e8 04 0b 00 00       	callq  2e70 <phase_defused>
    236c:	48 8d 3d ca 1c 00 00 	lea    0x1cca(%rip),%rdi        # 403d <_IO_stdin_used+0x3d>
    2373:	e8 f8 fc ff ff       	callq  2070 <puts@plt>
    2378:	e8 b9 09 00 00       	callq  2d36 <read_line>
    237d:	48 89 c7             	mov    %rax,%rdi
    2380:	e8 43 01 00 00       	callq  24c8 <phase_3>
    2385:	e8 e6 0a 00 00       	callq  2e70 <phase_defused>
    238a:	48 8d 3d bd 1c 00 00 	lea    0x1cbd(%rip),%rdi        # 404e <_IO_stdin_used+0x4e>
    2391:	e8 da fc ff ff       	callq  2070 <puts@plt>
    2396:	e8 9b 09 00 00       	callq  2d36 <read_line>
    239b:	48 89 c7             	mov    %rax,%rdi
    239e:	e8 46 02 00 00       	callq  25e9 <phase_4>
    23a3:	e8 c8 0a 00 00       	callq  2e70 <phase_defused>
    23a8:	48 8d 3d 71 1d 00 00 	lea    0x1d71(%rip),%rdi        # 4120 <_IO_stdin_used+0x120>
    23af:	e8 bc fc ff ff       	callq  2070 <puts@plt>
    23b4:	e8 7d 09 00 00       	callq  2d36 <read_line>
    23b9:	48 89 c7             	mov    %rax,%rdi
    23bc:	e8 a8 02 00 00       	callq  2669 <phase_5>
    23c1:	e8 aa 0a 00 00       	callq  2e70 <phase_defused>
    23c6:	48 8d 3d 90 1c 00 00 	lea    0x1c90(%rip),%rdi        # 405d <_IO_stdin_used+0x5d>
    23cd:	e8 9e fc ff ff       	callq  2070 <puts@plt>
    23d2:	e8 5f 09 00 00       	callq  2d36 <read_line>
    23d7:	48 89 c7             	mov    %rax,%rdi
    23da:	e8 17 03 00 00       	callq  26f6 <phase_6>
    23df:	e8 8c 0a 00 00       	callq  2e70 <phase_defused>
    23e4:	b8 00 00 00 00       	mov    $0x0,%eax
    23e9:	5b                   	pop    %rbx
    23ea:	c3                   	retq   
    23eb:	48 8b 05 de e3 00 00 	mov    0xe3de(%rip),%rax        # 107d0 <stdin@@GLIBC_2.2.5>
    23f2:	48 89 05 f7 e3 00 00 	mov    %rax,0xe3f7(%rip)        # 107f0 <infile>
    23f9:	e9 21 ff ff ff       	jmpq   231f <main+0x36>
    23fe:	48 8b 53 08          	mov    0x8(%rbx),%rdx
    2402:	48 8b 33             	mov    (%rbx),%rsi
    2405:	48 8d 3d fa 1b 00 00 	lea    0x1bfa(%rip),%rdi        # 4006 <_IO_stdin_used+0x6>
    240c:	e8 9f fc ff ff       	callq  20b0 <printf@plt>
    2411:	bf 08 00 00 00       	mov    $0x8,%edi
    2416:	e8 85 fd ff ff       	callq  21a0 <exit@plt>
    241b:	48 8b 36             	mov    (%rsi),%rsi
    241e:	48 8d 3d fe 1b 00 00 	lea    0x1bfe(%rip),%rdi        # 4023 <_IO_stdin_used+0x23>
    2425:	b8 00 00 00 00       	mov    $0x0,%eax
    242a:	e8 81 fc ff ff       	callq  20b0 <printf@plt>
    242f:	bf 08 00 00 00       	mov    $0x8,%edi
    2434:	e8 67 fd ff ff       	callq  21a0 <exit@plt>

0000000000002439 <phase_1>:
    2439:	48 83 ec 08          	sub    $0x8,%rsp
    243d:	48 8d 35 04 1d 00 00 	lea    0x1d04(%rip),%rsi        # 4148 <_IO_stdin_used+0x148>
    2444:	e8 10 05 00 00       	callq  2959 <strings_not_equal>
    2449:	85 c0                	test   %eax,%eax
    244b:	75 05                	jne    2452 <phase_1+0x19>
    244d:	48 83 c4 08          	add    $0x8,%rsp
    2451:	c3                   	retq   
    2452:	e8 de 07 00 00       	callq  2c35 <explode_bomb>
    2457:	eb f4                	jmp    244d <phase_1+0x14>

0000000000002459 <phase_2>:
    2459:	55                   	push   %rbp
    245a:	53                   	push   %rbx
    245b:	48 83 ec 28          	sub    $0x28,%rsp
    245f:	64 48 8b 04 25 28 00 	mov    %fs:0x28,%rax
    2466:	00 00 
    2468:	48 89 44 24 18       	mov    %rax,0x18(%rsp)
    246d:	31 c0                	xor    %eax,%eax
    246f:	48 89 e6             	mov    %rsp,%rsi
    2472:	e8 7e 08 00 00       	callq  2cf5 <read_six_numbers>
    2477:	83 3c 24 02          	cmpl   $0x2,(%rsp)
    247b:	75 0a                	jne    2487 <phase_2+0x2e>
    247d:	48 89 e3             	mov    %rsp,%rbx
    2480:	48 8d 6c 24 14       	lea    0x14(%rsp),%rbp
    2485:	eb 10                	jmp    2497 <phase_2+0x3e>
    2487:	e8 a9 07 00 00       	callq  2c35 <explode_bomb>
    248c:	eb ef                	jmp    247d <phase_2+0x24>
    248e:	48 83 c3 04          	add    $0x4,%rbx
    2492:	48 39 eb             	cmp    %rbp,%rbx
    2495:	74 15                	je     24ac <phase_2+0x53>
    2497:	8b 05 83 3c 00 00    	mov    0x3c83(%rip),%eax        # 6120 <mul.1>
    249d:	0f af 03             	imul   (%rbx),%eax
    24a0:	39 43 04             	cmp    %eax,0x4(%rbx)
    24a3:	74 e9                	je     248e <phase_2+0x35>
    24a5:	e8 8b 07 00 00       	callq  2c35 <explode_bomb>
    24aa:	eb e2                	jmp    248e <phase_2+0x35>
    24ac:	48 8b 44 24 18       	mov    0x18(%rsp),%rax
    24b1:	64 48 2b 04 25 28 00 	sub    %fs:0x28,%rax
    24b8:	00 00 
    24ba:	75 07                	jne    24c3 <phase_2+0x6a>
    24bc:	48 83 c4 28          	add    $0x28,%rsp
    24c0:	5b                   	pop    %rbx
    24c1:	5d                   	pop    %rbp
    24c2:	c3                   	retq   
    24c3:	e8 d8 fb ff ff       	callq  20a0 <__stack_chk_fail@plt>

00000000000024c8 <phase_3>:
    24c8:	53                   	push   %rbx
    24c9:	48 83 ec 10          	sub    $0x10,%rsp
    24cd:	64 48 8b 04 25 28 00 	mov    %fs:0x28,%rax
    24d4:	00 00 
    24d6:	48 89 44 24 08       	mov    %rax,0x8(%rsp)
    24db:	31 c0                	xor    %eax,%eax
    24dd:	48 8d 4c 24 04       	lea    0x4(%rsp),%rcx
    24e2:	48 89 e2             	mov    %rsp,%rdx
    24e5:	48 8d 35 e5 20 00 00 	lea    0x20e5(%rip),%rsi        # 45d1 <array.0+0x3f1>
    24ec:	e8 5f fc ff ff       	callq  2150 <__isoc99_sscanf@plt>
    24f1:	83 f8 01             	cmp    $0x1,%eax
    24f4:	7e 07                	jle    24fd <phase_3+0x35>
    24f6:	83 7c 24 04 00       	cmpl   $0x0,0x4(%rsp)
    24fb:	78 05                	js     2502 <phase_3+0x3a>
    24fd:	e8 33 07 00 00       	callq  2c35 <explode_bomb>
    2502:	83 3c 24 07          	cmpl   $0x7,(%rsp)
    2506:	0f 87 9a 00 00 00    	ja     25a6 <phase_3+0xde>
    250c:	8b 04 24             	mov    (%rsp),%eax
    250f:	48 8d 15 aa 1c 00 00 	lea    0x1caa(%rip),%rdx        # 41c0 <_IO_stdin_used+0x1c0>
    2516:	48 63 04 82          	movslq (%rdx,%rax,4),%rax
    251a:	48 01 d0             	add    %rdx,%rax
    251d:	ff e0                	jmpq   *%rax
    251f:	b8 1c 01 00 00       	mov    $0x11c,%eax
    2524:	2d 54 03 00 00       	sub    $0x354,%eax
    2529:	05 1b 02 00 00       	add    $0x21b,%eax
    252e:	8d 98 1a ff ff ff    	lea    -0xe6(%rax),%ebx
    2534:	e8 fc 06 00 00       	callq  2c35 <explode_bomb>
    2539:	8d 83 e6 00 00 00    	lea    0xe6(%rbx),%eax
    253f:	2d e6 00 00 00       	sub    $0xe6,%eax
    2544:	05 e6 00 00 00       	add    $0xe6,%eax
    2549:	2d e6 00 00 00       	sub    $0xe6,%eax
    254e:	83 3c 24 05          	cmpl   $0x5,(%rsp)
    2552:	7f 06                	jg     255a <phase_3+0x92>
    2554:	39 44 24 04          	cmp    %eax,0x4(%rsp)
    2558:	74 05                	je     255f <phase_3+0x97>
    255a:	e8 d6 06 00 00       	callq  2c35 <explode_bomb>
    255f:	48 8b 44 24 08       	mov    0x8(%rsp),%rax
    2564:	64 48 2b 04 25 28 00 	sub    %fs:0x28,%rax
    256b:	00 00 
    256d:	75 43                	jne    25b2 <phase_3+0xea>
    256f:	48 83 c4 10          	add    $0x10,%rsp
    2573:	5b                   	pop    %rbx
    2574:	c3                   	retq   
    2575:	b8 00 00 00 00       	mov    $0x0,%eax
    257a:	eb a8                	jmp    2524 <phase_3+0x5c>
    257c:	b8 00 00 00 00       	mov    $0x0,%eax
    2581:	eb a6                	jmp    2529 <phase_3+0x61>
    2583:	b8 00 00 00 00       	mov    $0x0,%eax
    2588:	eb a4                	jmp    252e <phase_3+0x66>
    258a:	bb 00 00 00 00       	mov    $0x0,%ebx
    258f:	eb a8                	jmp    2539 <phase_3+0x71>
    2591:	b8 00 00 00 00       	mov    $0x0,%eax
    2596:	eb a7                	jmp    253f <phase_3+0x77>
    2598:	b8 00 00 00 00       	mov    $0x0,%eax
    259d:	eb a5                	jmp    2544 <phase_3+0x7c>
    259f:	b8 00 00 00 00       	mov    $0x0,%eax
    25a4:	eb a3                	jmp    2549 <phase_3+0x81>
    25a6:	e8 8a 06 00 00       	callq  2c35 <explode_bomb>
    25ab:	b8 00 00 00 00       	mov    $0x0,%eax
    25b0:	eb 9c                	jmp    254e <phase_3+0x86>
    25b2:	e8 e9 fa ff ff       	callq  20a0 <__stack_chk_fail@plt>

00000000000025b7 <func4>:
    25b7:	53                   	push   %rbx
    25b8:	89 d0                	mov    %edx,%eax
    25ba:	29 f0                	sub    %esi,%eax
    25bc:	89 c3                	mov    %eax,%ebx
    25be:	c1 eb 1f             	shr    $0x1f,%ebx
    25c1:	01 c3                	add    %eax,%ebx
    25c3:	d1 fb                	sar    %ebx
    25c5:	01 f3                	add    %esi,%ebx
    25c7:	39 fb                	cmp    %edi,%ebx
    25c9:	7f 06                	jg     25d1 <func4+0x1a>
    25cb:	7c 10                	jl     25dd <func4+0x26>
    25cd:	89 d8                	mov    %ebx,%eax
    25cf:	5b                   	pop    %rbx
    25d0:	c3                   	retq   
    25d1:	8d 53 ff             	lea    -0x1(%rbx),%edx
    25d4:	e8 de ff ff ff       	callq  25b7 <func4>
    25d9:	01 c3                	add    %eax,%ebx
    25db:	eb f0                	jmp    25cd <func4+0x16>
    25dd:	8d 73 01             	lea    0x1(%rbx),%esi
    25e0:	e8 d2 ff ff ff       	callq  25b7 <func4>
    25e5:	01 c3                	add    %eax,%ebx
    25e7:	eb e4                	jmp    25cd <func4+0x16>

00000000000025e9 <phase_4>:
    25e9:	53                   	push   %rbx
    25ea:	48 83 ec 10          	sub    $0x10,%rsp
    25ee:	64 48 8b 04 25 28 00 	mov    %fs:0x28,%rax
    25f5:	00 00 
    25f7:	48 89 44 24 08       	mov    %rax,0x8(%rsp)
    25fc:	31 c0                	xor    %eax,%eax
    25fe:	48 8d 4c 24 04       	lea    0x4(%rsp),%rcx
    2603:	48 89 e2             	mov    %rsp,%rdx
    2606:	48 8d 35 c4 1f 00 00 	lea    0x1fc4(%rip),%rsi        # 45d1 <array.0+0x3f1>
    260d:	e8 3e fb ff ff       	callq  2150 <__isoc99_sscanf@plt>
    2612:	83 f8 02             	cmp    $0x2,%eax
    2615:	75 06                	jne    261d <phase_4+0x34>
    2617:	83 3c 24 0e          	cmpl   $0xe,(%rsp)
    261b:	76 05                	jbe    2622 <phase_4+0x39>
    261d:	e8 13 06 00 00       	callq  2c35 <explode_bomb>
    2622:	8b 44 24 04          	mov    0x4(%rsp),%eax
    2626:	8d 58 f6             	lea    -0xa(%rax),%ebx
    2629:	89 5c 24 04          	mov    %ebx,0x4(%rsp)
    262d:	ba 0e 00 00 00       	mov    $0xe,%edx
    2632:	be 00 00 00 00       	mov    $0x0,%esi
    2637:	8b 3c 24             	mov    (%rsp),%edi
    263a:	e8 78 ff ff ff       	callq  25b7 <func4>
    263f:	83 fb 13             	cmp    $0x13,%ebx
    2642:	75 05                	jne    2649 <phase_4+0x60>
    2644:	83 f8 13             	cmp    $0x13,%eax
    2647:	74 05                	je     264e <phase_4+0x65>
    2649:	e8 e7 05 00 00       	callq  2c35 <explode_bomb>
    264e:	48 8b 44 24 08       	mov    0x8(%rsp),%rax
    2653:	64 48 2b 04 25 28 00 	sub    %fs:0x28,%rax
    265a:	00 00 
    265c:	75 06                	jne    2664 <phase_4+0x7b>
    265e:	48 83 c4 10          	add    $0x10,%rsp
    2662:	5b                   	pop    %rbx
    2663:	c3                   	retq   
    2664:	e8 37 fa ff ff       	callq  20a0 <__stack_chk_fail@plt>

0000000000002669 <phase_5>:
    2669:	53                   	push   %rbx
    266a:	48 83 ec 10          	sub    $0x10,%rsp
    266e:	48 89 fb             	mov    %rdi,%rbx
    2671:	64 48 8b 04 25 28 00 	mov    %fs:0x28,%rax
    2678:	00 00 
    267a:	48 89 44 24 08       	mov    %rax,0x8(%rsp)
    267f:	31 c0                	xor    %eax,%eax
    2681:	e8 b6 02 00 00       	callq  293c <string_length>
    2686:	83 f8 06             	cmp    $0x6,%eax
    2689:	75 58                	jne    26e3 <phase_5+0x7a>
    268b:	ba 00 00 00 00       	mov    $0x0,%edx
    2690:	48 8d 0d 49 1b 00 00 	lea    0x1b49(%rip),%rcx        # 41e0 <array.0>
    2697:	0f be 04 13          	movsbl (%rbx,%rdx,1),%eax
    269b:	83 c0 0f             	add    $0xf,%eax
    269e:	83 e0 0f             	and    $0xf,%eax
    26a1:	0f b6 04 01          	movzbl (%rcx,%rax,1),%eax
    26a5:	88 44 14 01          	mov    %al,0x1(%rsp,%rdx,1)
    26a9:	48 83 c2 01          	add    $0x1,%rdx
    26ad:	48 83 fa 06          	cmp    $0x6,%rdx
    26b1:	75 e4                	jne    2697 <phase_5+0x2e>
    26b3:	c6 44 24 07 00       	movb   $0x0,0x7(%rsp)
    26b8:	48 8d 7c 24 01       	lea    0x1(%rsp),%rdi
    26bd:	48 8d 35 f2 1a 00 00 	lea    0x1af2(%rip),%rsi        # 41b6 <_IO_stdin_used+0x1b6>
    26c4:	e8 90 02 00 00       	callq  2959 <strings_not_equal>
    26c9:	85 c0                	test   %eax,%eax
    26cb:	75 1d                	jne    26ea <phase_5+0x81>
    26cd:	48 8b 44 24 08       	mov    0x8(%rsp),%rax
    26d2:	64 48 2b 04 25 28 00 	sub    %fs:0x28,%rax
    26d9:	00 00 
    26db:	75 14                	jne    26f1 <phase_5+0x88>
    26dd:	48 83 c4 10          	add    $0x10,%rsp
    26e1:	5b                   	pop    %rbx
    26e2:	c3                   	retq   
    26e3:	e8 4d 05 00 00       	callq  2c35 <explode_bomb>
    26e8:	eb a1                	jmp    268b <phase_5+0x22>
    26ea:	e8 46 05 00 00       	callq  2c35 <explode_bomb>
    26ef:	eb dc                	jmp    26cd <phase_5+0x64>
    26f1:	e8 aa f9 ff ff       	callq  20a0 <__stack_chk_fail@plt>

00000000000026f6 <phase_6>:
    26f6:	41 56                	push   %r14
    26f8:	41 55                	push   %r13
    26fa:	41 54                	push   %r12
    26fc:	55                   	push   %rbp
    26fd:	53                   	push   %rbx
    26fe:	48 83 ec 60          	sub    $0x60,%rsp
    2702:	64 48 8b 04 25 28 00 	mov    %fs:0x28,%rax
    2709:	00 00 
    270b:	48 89 44 24 58       	mov    %rax,0x58(%rsp)
    2710:	31 c0                	xor    %eax,%eax
    2712:	49 89 e5             	mov    %rsp,%r13
    2715:	4c 89 ee             	mov    %r13,%rsi
    2718:	e8 d8 05 00 00       	callq  2cf5 <read_six_numbers>
    271d:	41 be 01 00 00 00    	mov    $0x1,%r14d
    2723:	49 89 e4             	mov    %rsp,%r12
    2726:	eb 28                	jmp    2750 <phase_6+0x5a>
    2728:	e8 08 05 00 00       	callq  2c35 <explode_bomb>
    272d:	eb 30                	jmp    275f <phase_6+0x69>
    272f:	48 83 c3 01          	add    $0x1,%rbx
    2733:	83 fb 05             	cmp    $0x5,%ebx
    2736:	7f 10                	jg     2748 <phase_6+0x52>
    2738:	41 8b 04 9c          	mov    (%r12,%rbx,4),%eax
    273c:	39 45 00             	cmp    %eax,0x0(%rbp)
    273f:	75 ee                	jne    272f <phase_6+0x39>
    2741:	e8 ef 04 00 00       	callq  2c35 <explode_bomb>
    2746:	eb e7                	jmp    272f <phase_6+0x39>
    2748:	49 83 c6 01          	add    $0x1,%r14
    274c:	49 83 c5 04          	add    $0x4,%r13
    2750:	4c 89 ed             	mov    %r13,%rbp
    2753:	41 8b 45 00          	mov    0x0(%r13),%eax
    2757:	83 e8 01             	sub    $0x1,%eax
    275a:	83 f8 05             	cmp    $0x5,%eax
    275d:	77 c9                	ja     2728 <phase_6+0x32>
    275f:	41 83 fe 05          	cmp    $0x5,%r14d
    2763:	7f 05                	jg     276a <phase_6+0x74>
    2765:	4c 89 f3             	mov    %r14,%rbx
    2768:	eb ce                	jmp    2738 <phase_6+0x42>
    276a:	be 00 00 00 00       	mov    $0x0,%esi
    276f:	8b 0c b4             	mov    (%rsp,%rsi,4),%ecx
    2772:	b8 01 00 00 00       	mov    $0x1,%eax
    2777:	48 8d 15 e2 db 00 00 	lea    0xdbe2(%rip),%rdx        # 10360 <node1>
    277e:	83 f9 01             	cmp    $0x1,%ecx
    2781:	7e 0b                	jle    278e <phase_6+0x98>
    2783:	48 8b 52 08          	mov    0x8(%rdx),%rdx
    2787:	83 c0 01             	add    $0x1,%eax
    278a:	39 c8                	cmp    %ecx,%eax
    278c:	75 f5                	jne    2783 <phase_6+0x8d>
    278e:	48 89 54 f4 20       	mov    %rdx,0x20(%rsp,%rsi,8)
    2793:	48 83 c6 01          	add    $0x1,%rsi
    2797:	48 83 fe 06          	cmp    $0x6,%rsi
    279b:	75 d2                	jne    276f <phase_6+0x79>
    279d:	48 8b 5c 24 20       	mov    0x20(%rsp),%rbx
    27a2:	48 8b 44 24 28       	mov    0x28(%rsp),%rax
    27a7:	48 89 43 08          	mov    %rax,0x8(%rbx)
    27ab:	48 8b 54 24 30       	mov    0x30(%rsp),%rdx
    27b0:	48 89 50 08          	mov    %rdx,0x8(%rax)
    27b4:	48 8b 44 24 38       	mov    0x38(%rsp),%rax
    27b9:	48 89 42 08          	mov    %rax,0x8(%rdx)
    27bd:	48 8b 54 24 40       	mov    0x40(%rsp),%rdx
    27c2:	48 89 50 08          	mov    %rdx,0x8(%rax)
    27c6:	48 8b 44 24 48       	mov    0x48(%rsp),%rax
    27cb:	48 89 42 08          	mov    %rax,0x8(%rdx)
    27cf:	48 c7 40 08 00 00 00 	movq   $0x0,0x8(%rax)
    27d6:	00 
    27d7:	bd 05 00 00 00       	mov    $0x5,%ebp
    27dc:	eb 09                	jmp    27e7 <phase_6+0xf1>
    27de:	48 8b 5b 08          	mov    0x8(%rbx),%rbx
    27e2:	83 ed 01             	sub    $0x1,%ebp
    27e5:	74 11                	je     27f8 <phase_6+0x102>
    27e7:	48 8b 43 08          	mov    0x8(%rbx),%rax
    27eb:	8b 00                	mov    (%rax),%eax
    27ed:	39 03                	cmp    %eax,(%rbx)
    27ef:	7e ed                	jle    27de <phase_6+0xe8>
    27f1:	e8 3f 04 00 00       	callq  2c35 <explode_bomb>
    27f6:	eb e6                	jmp    27de <phase_6+0xe8>
    27f8:	48 8b 44 24 58       	mov    0x58(%rsp),%rax
    27fd:	64 48 2b 04 25 28 00 	sub    %fs:0x28,%rax
    2804:	00 00 
    2806:	75 0d                	jne    2815 <phase_6+0x11f>
    2808:	48 83 c4 60          	add    $0x60,%rsp
    280c:	5b                   	pop    %rbx
    280d:	5d                   	pop    %rbp
    280e:	41 5c                	pop    %r12
    2810:	41 5d                	pop    %r13
    2812:	41 5e                	pop    %r14
    2814:	c3                   	retq   
    2815:	e8 86 f8 ff ff       	callq  20a0 <__stack_chk_fail@plt>

000000000000281a <fun7>:
    281a:	55                   	push   %rbp
    281b:	53                   	push   %rbx
    281c:	48 83 ec 08          	sub    $0x8,%rsp
    2820:	48 89 fb             	mov    %rdi,%rbx
    2823:	48 89 f5             	mov    %rsi,%rbp
    2826:	48 85 ff             	test   %rdi,%rdi
    2829:	74 2b                	je     2856 <fun7+0x3c>
    282b:	0f b6 55 00          	movzbl 0x0(%rbp),%edx
    282f:	84 d2                	test   %dl,%dl
    2831:	74 2a                	je     285d <fun7+0x43>
    2833:	80 fa 61             	cmp    $0x61,%dl
    2836:	74 29                	je     2861 <fun7+0x47>
    2838:	0f be d2             	movsbl %dl,%edx
    283b:	83 ea 61             	sub    $0x61,%edx
    283e:	b8 01 00 00 00       	mov    $0x1,%eax
    2843:	39 d0                	cmp    %edx,%eax
    2845:	74 1f                	je     2866 <fun7+0x4c>
    2847:	83 c0 01             	add    $0x1,%eax
    284a:	83 f8 1a             	cmp    $0x1a,%eax
    284d:	75 f4                	jne    2843 <fun7+0x29>
    284f:	e8 e1 03 00 00       	callq  2c35 <explode_bomb>
    2854:	eb 21                	jmp    2877 <fun7+0x5d>
    2856:	e8 da 03 00 00       	callq  2c35 <explode_bomb>
    285b:	eb ce                	jmp    282b <fun7+0x11>
    285d:	8b 03                	mov    (%rbx),%eax
    285f:	eb 16                	jmp    2877 <fun7+0x5d>
    2861:	ba 00 00 00 00       	mov    $0x0,%edx
    2866:	48 8d 75 01          	lea    0x1(%rbp),%rsi
    286a:	48 63 d2             	movslq %edx,%rdx
    286d:	48 8b 7c d3 08       	mov    0x8(%rbx,%rdx,8),%rdi
    2872:	e8 a3 ff ff ff       	callq  281a <fun7>
    2877:	48 83 c4 08          	add    $0x8,%rsp
    287b:	5b                   	pop    %rbx
    287c:	5d                   	pop    %rbp
    287d:	c3                   	retq   

000000000000287e <secret_phase>:
    287e:	48 83 ec 18          	sub    $0x18,%rsp
    2882:	c7 44 24 0c 16 00 00 	movl   $0x16,0xc(%rsp)
    2889:	00 
    288a:	e8 a7 04 00 00       	callq  2d36 <read_line>
    288f:	48 89 c6             	mov    %rax,%rsi
    2892:	48 8d 3d 47 52 00 00 	lea    0x5247(%rip),%rdi        # 7ae0 <t0>
    2899:	e8 7c ff ff ff       	callq  281a <fun7>
    289e:	8b 54 24 0c          	mov    0xc(%rsp),%edx
    28a2:	39 c2                	cmp    %eax,%edx
    28a4:	75 16                	jne    28bc <secret_phase+0x3e>
    28a6:	48 8d 3d e3 18 00 00 	lea    0x18e3(%rip),%rdi        # 4190 <_IO_stdin_used+0x190>
    28ad:	e8 be f7 ff ff       	callq  2070 <puts@plt>
    28b2:	e8 b9 05 00 00       	callq  2e70 <phase_defused>
    28b7:	48 83 c4 18          	add    $0x18,%rsp
    28bb:	c3                   	retq   
    28bc:	e8 74 03 00 00       	callq  2c35 <explode_bomb>
    28c1:	eb e3                	jmp    28a6 <secret_phase+0x28>

00000000000028c3 <sig_handler>:
    28c3:	48 83 ec 08          	sub    $0x8,%rsp
    28c7:	48 8d 3d 22 19 00 00 	lea    0x1922(%rip),%rdi        # 41f0 <array.0+0x10>
    28ce:	e8 9d f7 ff ff       	callq  2070 <puts@plt>
    28d3:	bf 03 00 00 00       	mov    $0x3,%edi
    28d8:	e8 e3 f8 ff ff       	callq  21c0 <sleep@plt>
    28dd:	48 8d 3d f5 1a 00 00 	lea    0x1af5(%rip),%rdi        # 43d9 <array.0+0x1f9>
    28e4:	b8 00 00 00 00       	mov    $0x0,%eax
    28e9:	e8 c2 f7 ff ff       	callq  20b0 <printf@plt>
    28ee:	48 8b 3d cb de 00 00 	mov    0xdecb(%rip),%rdi        # 107c0 <stdout@@GLIBC_2.2.5>
    28f5:	e8 46 f8 ff ff       	callq  2140 <fflush@plt>
    28fa:	bf 01 00 00 00       	mov    $0x1,%edi
    28ff:	e8 bc f8 ff ff       	callq  21c0 <sleep@plt>
    2904:	48 8d 3d d6 1a 00 00 	lea    0x1ad6(%rip),%rdi        # 43e1 <array.0+0x201>
    290b:	e8 60 f7 ff ff       	callq  2070 <puts@plt>
    2910:	bf 10 00 00 00       	mov    $0x10,%edi
    2915:	e8 86 f8 ff ff       	callq  21a0 <exit@plt>

000000000000291a <invalid_phase>:
    291a:	48 83 ec 08          	sub    $0x8,%rsp
    291e:	48 89 fe             	mov    %rdi,%rsi
    2921:	48 8d 3d c3 1a 00 00 	lea    0x1ac3(%rip),%rdi        # 43eb <array.0+0x20b>
    2928:	b8 00 00 00 00       	mov    $0x0,%eax
    292d:	e8 7e f7 ff ff       	callq  20b0 <printf@plt>
    2932:	bf 08 00 00 00       	mov    $0x8,%edi
    2937:	e8 64 f8 ff ff       	callq  21a0 <exit@plt>

000000000000293c <string_length>:
    293c:	80 3f 00             	cmpb   $0x0,(%rdi)
    293f:	74 12                	je     2953 <string_length+0x17>
    2941:	b8 00 00 00 00       	mov    $0x0,%eax
    2946:	48 83 c7 01          	add    $0x1,%rdi
    294a:	83 c0 01             	add    $0x1,%eax
    294d:	80 3f 00             	cmpb   $0x0,(%rdi)
    2950:	75 f4                	jne    2946 <string_length+0xa>
    2952:	c3                   	retq   
    2953:	b8 00 00 00 00       	mov    $0x0,%eax
    2958:	c3                   	retq   

0000000000002959 <strings_not_equal>:
    2959:	41 54                	push   %r12
    295b:	55                   	push   %rbp
    295c:	53                   	push   %rbx
    295d:	48 89 fb             	mov    %rdi,%rbx
    2960:	48 89 f5             	mov    %rsi,%rbp
    2963:	e8 d4 ff ff ff       	callq  293c <string_length>
    2968:	41 89 c4             	mov    %eax,%r12d
    296b:	48 89 ef             	mov    %rbp,%rdi
    296e:	e8 c9 ff ff ff       	callq  293c <string_length>
    2973:	89 c2                	mov    %eax,%edx
    2975:	b8 01 00 00 00       	mov    $0x1,%eax
    297a:	41 39 d4             	cmp    %edx,%r12d
    297d:	75 31                	jne    29b0 <strings_not_equal+0x57>
    297f:	0f b6 13             	movzbl (%rbx),%edx
    2982:	84 d2                	test   %dl,%dl
    2984:	74 1e                	je     29a4 <strings_not_equal+0x4b>
    2986:	b8 00 00 00 00       	mov    $0x0,%eax
    298b:	38 54 05 00          	cmp    %dl,0x0(%rbp,%rax,1)
    298f:	75 1a                	jne    29ab <strings_not_equal+0x52>
    2991:	48 83 c0 01          	add    $0x1,%rax
    2995:	0f b6 14 03          	movzbl (%rbx,%rax,1),%edx
    2999:	84 d2                	test   %dl,%dl
    299b:	75 ee                	jne    298b <strings_not_equal+0x32>
    299d:	b8 00 00 00 00       	mov    $0x0,%eax
    29a2:	eb 0c                	jmp    29b0 <strings_not_equal+0x57>
    29a4:	b8 00 00 00 00       	mov    $0x0,%eax
    29a9:	eb 05                	jmp    29b0 <strings_not_equal+0x57>
    29ab:	b8 01 00 00 00       	mov    $0x1,%eax
    29b0:	5b                   	pop    %rbx
    29b1:	5d                   	pop    %rbp
    29b2:	41 5c                	pop    %r12
    29b4:	c3                   	retq   

00000000000029b5 <initialize_bomb>:
    29b5:	55                   	push   %rbp
    29b6:	53                   	push   %rbx
    29b7:	48 81 ec 58 20 00 00 	sub    $0x2058,%rsp
    29be:	64 48 8b 04 25 28 00 	mov    %fs:0x28,%rax
    29c5:	00 00 
    29c7:	48 89 84 24 48 20 00 	mov    %rax,0x2048(%rsp)
    29ce:	00 
    29cf:	31 c0                	xor    %eax,%eax
    29d1:	48 8d 35 eb fe ff ff 	lea    -0x115(%rip),%rsi        # 28c3 <sig_handler>
    29d8:	bf 02 00 00 00       	mov    $0x2,%edi
    29dd:	e8 2e f7 ff ff       	callq  2110 <signal@plt>
    29e2:	48 89 e7             	mov    %rsp,%rdi
    29e5:	be 40 00 00 00       	mov    $0x40,%esi
    29ea:	e8 91 f7 ff ff       	callq  2180 <gethostname@plt>
    29ef:	85 c0                	test   %eax,%eax
    29f1:	75 45                	jne    2a38 <initialize_bomb+0x83>
    29f3:	48 8b 3d c6 d9 00 00 	mov    0xd9c6(%rip),%rdi        # 103c0 <host_table>
    29fa:	48 8d 1d c7 d9 00 00 	lea    0xd9c7(%rip),%rbx        # 103c8 <host_table+0x8>
    2a01:	48 89 e5             	mov    %rsp,%rbp
    2a04:	48 85 ff             	test   %rdi,%rdi
    2a07:	74 19                	je     2a22 <initialize_bomb+0x6d>
    2a09:	48 89 ee             	mov    %rbp,%rsi
    2a0c:	e8 2f f6 ff ff       	callq  2040 <strcasecmp@plt>
    2a11:	85 c0                	test   %eax,%eax
    2a13:	74 59                	je     2a6e <initialize_bomb+0xb9>
    2a15:	48 83 c3 08          	add    $0x8,%rbx
    2a19:	48 8b 7b f8          	mov    -0x8(%rbx),%rdi
    2a1d:	48 85 ff             	test   %rdi,%rdi
    2a20:	75 e7                	jne    2a09 <initialize_bomb+0x54>
    2a22:	48 8d 3d 37 18 00 00 	lea    0x1837(%rip),%rdi        # 4260 <array.0+0x80>
    2a29:	e8 42 f6 ff ff       	callq  2070 <puts@plt>
    2a2e:	bf 08 00 00 00       	mov    $0x8,%edi
    2a33:	e8 68 f7 ff ff       	callq  21a0 <exit@plt>
    2a38:	48 8d 3d e9 17 00 00 	lea    0x17e9(%rip),%rdi        # 4228 <array.0+0x48>
    2a3f:	e8 2c f6 ff ff       	callq  2070 <puts@plt>
    2a44:	bf 08 00 00 00       	mov    $0x8,%edi
    2a49:	e8 52 f7 ff ff       	callq  21a0 <exit@plt>
    2a4e:	48 8d 74 24 40       	lea    0x40(%rsp),%rsi
    2a53:	48 8d 3d a2 19 00 00 	lea    0x19a2(%rip),%rdi        # 43fc <array.0+0x21c>
    2a5a:	b8 00 00 00 00       	mov    $0x0,%eax
    2a5f:	e8 4c f6 ff ff       	callq  20b0 <printf@plt>
    2a64:	bf 08 00 00 00       	mov    $0x8,%edi
    2a69:	e8 32 f7 ff ff       	callq  21a0 <exit@plt>
    2a6e:	48 8d 7c 24 40       	lea    0x40(%rsp),%rdi
    2a73:	e8 61 0e 00 00       	callq  38d9 <init_driver>
    2a78:	85 c0                	test   %eax,%eax
    2a7a:	78 d2                	js     2a4e <initialize_bomb+0x99>
    2a7c:	48 8d 3d 93 19 00 00 	lea    0x1993(%rip),%rdi        # 4416 <array.0+0x236>
    2a83:	e8 e8 f5 ff ff       	callq  2070 <puts@plt>
    2a88:	48 8d 3d 93 19 00 00 	lea    0x1993(%rip),%rdi        # 4422 <array.0+0x242>
    2a8f:	e8 dc f5 ff ff       	callq  2070 <puts@plt>
    2a94:	48 8d 3d 93 19 00 00 	lea    0x1993(%rip),%rdi        # 442e <array.0+0x24e>
    2a9b:	e8 d0 f5 ff ff       	callq  2070 <puts@plt>
    2aa0:	48 8d 3d 93 19 00 00 	lea    0x1993(%rip),%rdi        # 443a <array.0+0x25a>
    2aa7:	e8 c4 f5 ff ff       	callq  2070 <puts@plt>
    2aac:	48 8d 3d 93 19 00 00 	lea    0x1993(%rip),%rdi        # 4446 <array.0+0x266>
    2ab3:	e8 b8 f5 ff ff       	callq  2070 <puts@plt>
    2ab8:	48 8b 84 24 48 20 00 	mov    0x2048(%rsp),%rax
    2abf:	00 
    2ac0:	64 48 2b 04 25 28 00 	sub    %fs:0x28,%rax
    2ac7:	00 00 
    2ac9:	75 0a                	jne    2ad5 <initialize_bomb+0x120>
    2acb:	48 81 c4 58 20 00 00 	add    $0x2058,%rsp
    2ad2:	5b                   	pop    %rbx
    2ad3:	5d                   	pop    %rbp
    2ad4:	c3                   	retq   
    2ad5:	e8 c6 f5 ff ff       	callq  20a0 <__stack_chk_fail@plt>

0000000000002ada <initialize_bomb_solve>:
    2ada:	c3                   	retq   

0000000000002adb <blank_line>:
    2adb:	55                   	push   %rbp
    2adc:	53                   	push   %rbx
    2add:	48 83 ec 08          	sub    $0x8,%rsp
    2ae1:	48 89 fd             	mov    %rdi,%rbp
    2ae4:	0f b6 5d 00          	movzbl 0x0(%rbp),%ebx
    2ae8:	84 db                	test   %bl,%bl
    2aea:	74 1e                	je     2b0a <blank_line+0x2f>
    2aec:	e8 df f6 ff ff       	callq  21d0 <__ctype_b_loc@plt>
    2af1:	48 83 c5 01          	add    $0x1,%rbp
    2af5:	48 0f be db          	movsbq %bl,%rbx
    2af9:	48 8b 00             	mov    (%rax),%rax
    2afc:	f6 44 58 01 20       	testb  $0x20,0x1(%rax,%rbx,2)
    2b01:	75 e1                	jne    2ae4 <blank_line+0x9>
    2b03:	b8 00 00 00 00       	mov    $0x0,%eax
    2b08:	eb 05                	jmp    2b0f <blank_line+0x34>
    2b0a:	b8 01 00 00 00       	mov    $0x1,%eax
    2b0f:	48 83 c4 08          	add    $0x8,%rsp
    2b13:	5b                   	pop    %rbx
    2b14:	5d                   	pop    %rbp
    2b15:	c3                   	retq   

0000000000002b16 <skip>:
    2b16:	55                   	push   %rbp
    2b17:	53                   	push   %rbx
    2b18:	48 83 ec 08          	sub    $0x8,%rsp
    2b1c:	48 8d 2d 5d dd 00 00 	lea    0xdd5d(%rip),%rbp        # 10880 <input_strings>
    2b23:	48 63 15 4e dd 00 00 	movslq 0xdd4e(%rip),%rdx        # 10878 <num_input_strings>
    2b2a:	48 89 d0             	mov    %rdx,%rax
    2b2d:	48 c1 e0 04          	shl    $0x4,%rax
    2b31:	48 29 d0             	sub    %rdx,%rax
    2b34:	48 8d 7c c5 00       	lea    0x0(%rbp,%rax,8),%rdi
    2b39:	48 8b 15 b0 dc 00 00 	mov    0xdcb0(%rip),%rdx        # 107f0 <infile>
    2b40:	be 78 00 00 00       	mov    $0x78,%esi
    2b45:	e8 a6 f5 ff ff       	callq  20f0 <fgets@plt>
    2b4a:	48 89 c3             	mov    %rax,%rbx
    2b4d:	48 85 c0             	test   %rax,%rax
    2b50:	74 0c                	je     2b5e <skip+0x48>
    2b52:	48 89 c7             	mov    %rax,%rdi
    2b55:	e8 81 ff ff ff       	callq  2adb <blank_line>
    2b5a:	85 c0                	test   %eax,%eax
    2b5c:	75 c5                	jne    2b23 <skip+0xd>
    2b5e:	48 89 d8             	mov    %rbx,%rax
    2b61:	48 83 c4 08          	add    $0x8,%rsp
    2b65:	5b                   	pop    %rbx
    2b66:	5d                   	pop    %rbp
    2b67:	c3                   	retq   

0000000000002b68 <send_msg>:
    2b68:	53                   	push   %rbx
    2b69:	48 81 ec 10 40 00 00 	sub    $0x4010,%rsp
    2b70:	64 48 8b 04 25 28 00 	mov    %fs:0x28,%rax
    2b77:	00 00 
    2b79:	48 89 84 24 08 40 00 	mov    %rax,0x4008(%rsp)
    2b80:	00 
    2b81:	31 c0                	xor    %eax,%eax
    2b83:	44 8b 05 ee dc 00 00 	mov    0xdcee(%rip),%r8d        # 10878 <num_input_strings>
    2b8a:	41 8d 40 ff          	lea    -0x1(%r8),%eax
    2b8e:	48 98                	cltq   
    2b90:	48 89 c2             	mov    %rax,%rdx
    2b93:	48 c1 e2 04          	shl    $0x4,%rdx
    2b97:	48 29 c2             	sub    %rax,%rdx
    2b9a:	85 ff                	test   %edi,%edi
    2b9c:	48 8d 0d af 18 00 00 	lea    0x18af(%rip),%rcx        # 4452 <array.0+0x272>
    2ba3:	48 8d 05 b0 18 00 00 	lea    0x18b0(%rip),%rax        # 445a <array.0+0x27a>
    2baa:	48 0f 44 c8          	cmove  %rax,%rcx
    2bae:	48 89 e3             	mov    %rsp,%rbx
    2bb1:	48 8d 05 c8 dc 00 00 	lea    0xdcc8(%rip),%rax        # 10880 <input_strings>
    2bb8:	4c 8d 0c d0          	lea    (%rax,%rdx,8),%r9
    2bbc:	8b 15 12 4f 00 00    	mov    0x4f12(%rip),%edx        # 7ad4 <bomb_id>
    2bc2:	48 8d 35 9a 18 00 00 	lea    0x189a(%rip),%rsi        # 4463 <array.0+0x283>
    2bc9:	48 89 df             	mov    %rbx,%rdi
    2bcc:	b8 00 00 00 00       	mov    $0x0,%eax
    2bd1:	e8 ba f5 ff ff       	callq  2190 <sprintf@plt>
    2bd6:	4c 8d 84 24 00 20 00 	lea    0x2000(%rsp),%r8
    2bdd:	00 
    2bde:	b9 00 00 00 00       	mov    $0x0,%ecx
    2be3:	48 89 da             	mov    %rbx,%rdx
    2be6:	48 8d 35 c3 4e 00 00 	lea    0x4ec3(%rip),%rsi        # 7ab0 <user_password>
    2bed:	48 8d 3d d4 4e 00 00 	lea    0x4ed4(%rip),%rdi        # 7ac8 <userid>
    2bf4:	e8 c0 0e 00 00       	callq  3ab9 <driver_post>
    2bf9:	85 c0                	test   %eax,%eax
    2bfb:	78 1c                	js     2c19 <send_msg+0xb1>
    2bfd:	48 8b 84 24 08 40 00 	mov    0x4008(%rsp),%rax
    2c04:	00 
    2c05:	64 48 2b 04 25 28 00 	sub    %fs:0x28,%rax
    2c0c:	00 00 
    2c0e:	75 20                	jne    2c30 <send_msg+0xc8>
    2c10:	48 81 c4 10 40 00 00 	add    $0x4010,%rsp
    2c17:	5b                   	pop    %rbx
    2c18:	c3                   	retq   
    2c19:	48 8d bc 24 00 20 00 	lea    0x2000(%rsp),%rdi
    2c20:	00 
    2c21:	e8 4a f4 ff ff       	callq  2070 <puts@plt>
    2c26:	bf 00 00 00 00       	mov    $0x0,%edi
    2c2b:	e8 70 f5 ff ff       	callq  21a0 <exit@plt>
    2c30:	e8 6b f4 ff ff       	callq  20a0 <__stack_chk_fail@plt>

0000000000002c35 <explode_bomb>:
    2c35:	48 83 ec 08          	sub    $0x8,%rsp
    2c39:	48 8d 3d 58 16 00 00 	lea    0x1658(%rip),%rdi        # 4298 <array.0+0xb8>
    2c40:	e8 2b f4 ff ff       	callq  2070 <puts@plt>
    2c45:	48 8d 3d 23 18 00 00 	lea    0x1823(%rip),%rdi        # 446f <array.0+0x28f>
    2c4c:	e8 1f f4 ff ff       	callq  2070 <puts@plt>
    2c51:	48 8d 3d 34 18 00 00 	lea    0x1834(%rip),%rdi        # 448c <array.0+0x2ac>
    2c58:	e8 13 f4 ff ff       	callq  2070 <puts@plt>
    2c5d:	48 8d 3d 45 18 00 00 	lea    0x1845(%rip),%rdi        # 44a9 <array.0+0x2c9>
    2c64:	e8 07 f4 ff ff       	callq  2070 <puts@plt>
    2c69:	48 8d 3d 56 18 00 00 	lea    0x1856(%rip),%rdi        # 44c6 <array.0+0x2e6>
    2c70:	e8 fb f3 ff ff       	callq  2070 <puts@plt>
    2c75:	48 8d 3d 67 18 00 00 	lea    0x1867(%rip),%rdi        # 44e3 <array.0+0x303>
    2c7c:	e8 ef f3 ff ff       	callq  2070 <puts@plt>
    2c81:	48 8d 3d 77 18 00 00 	lea    0x1877(%rip),%rdi        # 44ff <array.0+0x31f>
    2c88:	e8 e3 f3 ff ff       	callq  2070 <puts@plt>
    2c8d:	48 8d 3d 88 18 00 00 	lea    0x1888(%rip),%rdi        # 451c <array.0+0x33c>
    2c94:	e8 d7 f3 ff ff       	callq  2070 <puts@plt>
    2c99:	48 8d 3d 99 18 00 00 	lea    0x1899(%rip),%rdi        # 4539 <array.0+0x359>
    2ca0:	e8 cb f3 ff ff       	callq  2070 <puts@plt>
    2ca5:	48 8d 3d aa 18 00 00 	lea    0x18aa(%rip),%rdi        # 4556 <array.0+0x376>
    2cac:	e8 bf f3 ff ff       	callq  2070 <puts@plt>
    2cb1:	48 8d 3d bb 18 00 00 	lea    0x18bb(%rip),%rdi        # 4573 <array.0+0x393>
    2cb8:	e8 b3 f3 ff ff       	callq  2070 <puts@plt>
    2cbd:	48 8d 3d cc 18 00 00 	lea    0x18cc(%rip),%rdi        # 4590 <array.0+0x3b0>
    2cc4:	e8 a7 f3 ff ff       	callq  2070 <puts@plt>
    2cc9:	48 8d 3d dd 18 00 00 	lea    0x18dd(%rip),%rdi        # 45ad <array.0+0x3cd>
    2cd0:	e8 9b f3 ff ff       	callq  2070 <puts@plt>
    2cd5:	bf 00 00 00 00       	mov    $0x0,%edi
    2cda:	e8 89 fe ff ff       	callq  2b68 <send_msg>
    2cdf:	48 8d 3d fa 15 00 00 	lea    0x15fa(%rip),%rdi        # 42e0 <array.0+0x100>
    2ce6:	e8 85 f3 ff ff       	callq  2070 <puts@plt>
    2ceb:	bf 08 00 00 00       	mov    $0x8,%edi
    2cf0:	e8 ab f4 ff ff       	callq  21a0 <exit@plt>

0000000000002cf5 <read_six_numbers>:
    2cf5:	48 83 ec 08          	sub    $0x8,%rsp
    2cf9:	48 89 f2             	mov    %rsi,%rdx
    2cfc:	48 8d 4e 04          	lea    0x4(%rsi),%rcx
    2d00:	48 8d 46 14          	lea    0x14(%rsi),%rax
    2d04:	50                   	push   %rax
    2d05:	48 8d 46 10          	lea    0x10(%rsi),%rax
    2d09:	50                   	push   %rax
    2d0a:	4c 8d 4e 0c          	lea    0xc(%rsi),%r9
    2d0e:	4c 8d 46 08          	lea    0x8(%rsi),%r8
    2d12:	48 8d 35 ac 18 00 00 	lea    0x18ac(%rip),%rsi        # 45c5 <array.0+0x3e5>
    2d19:	b8 00 00 00 00       	mov    $0x0,%eax
    2d1e:	e8 2d f4 ff ff       	callq  2150 <__isoc99_sscanf@plt>
    2d23:	48 83 c4 10          	add    $0x10,%rsp
    2d27:	83 f8 05             	cmp    $0x5,%eax
    2d2a:	7e 05                	jle    2d31 <read_six_numbers+0x3c>
    2d2c:	48 83 c4 08          	add    $0x8,%rsp
    2d30:	c3                   	retq   
    2d31:	e8 ff fe ff ff       	callq  2c35 <explode_bomb>

0000000000002d36 <read_line>:
    2d36:	55                   	push   %rbp
    2d37:	53                   	push   %rbx
    2d38:	48 83 ec 08          	sub    $0x8,%rsp
    2d3c:	b8 00 00 00 00       	mov    $0x0,%eax
    2d41:	e8 d0 fd ff ff       	callq  2b16 <skip>
    2d46:	48 85 c0             	test   %rax,%rax
    2d49:	74 63                	je     2dae <read_line+0x78>
    2d4b:	8b 1d 27 db 00 00    	mov    0xdb27(%rip),%ebx        # 10878 <num_input_strings>
    2d51:	48 63 d3             	movslq %ebx,%rdx
    2d54:	48 89 d0             	mov    %rdx,%rax
    2d57:	48 c1 e0 04          	shl    $0x4,%rax
    2d5b:	48 29 d0             	sub    %rdx,%rax
    2d5e:	48 8d 15 1b db 00 00 	lea    0xdb1b(%rip),%rdx        # 10880 <input_strings>
    2d65:	48 8d 2c c2          	lea    (%rdx,%rax,8),%rbp
    2d69:	48 89 ef             	mov    %rbp,%rdi
    2d6c:	e8 1f f3 ff ff       	callq  2090 <strlen@plt>
    2d71:	83 f8 76             	cmp    $0x76,%eax
    2d74:	0f 8f ac 00 00 00    	jg     2e26 <read_line+0xf0>
    2d7a:	83 e8 01             	sub    $0x1,%eax
    2d7d:	48 98                	cltq   
    2d7f:	48 63 cb             	movslq %ebx,%rcx
    2d82:	48 89 ca             	mov    %rcx,%rdx
    2d85:	48 c1 e2 04          	shl    $0x4,%rdx
    2d89:	48 29 ca             	sub    %rcx,%rdx
    2d8c:	48 8d 0d ed da 00 00 	lea    0xdaed(%rip),%rcx        # 10880 <input_strings>
    2d93:	48 8d 14 d1          	lea    (%rcx,%rdx,8),%rdx
    2d97:	c6 04 02 00          	movb   $0x0,(%rdx,%rax,1)
    2d9b:	83 c3 01             	add    $0x1,%ebx
    2d9e:	89 1d d4 da 00 00    	mov    %ebx,0xdad4(%rip)        # 10878 <num_input_strings>
    2da4:	48 89 e8             	mov    %rbp,%rax
    2da7:	48 83 c4 08          	add    $0x8,%rsp
    2dab:	5b                   	pop    %rbx
    2dac:	5d                   	pop    %rbp
    2dad:	c3                   	retq   
    2dae:	48 8b 05 1b da 00 00 	mov    0xda1b(%rip),%rax        # 107d0 <stdin@@GLIBC_2.2.5>
    2db5:	48 39 05 34 da 00 00 	cmp    %rax,0xda34(%rip)        # 107f0 <infile>
    2dbc:	74 1b                	je     2dd9 <read_line+0xa3>
    2dbe:	48 8d 3d 30 18 00 00 	lea    0x1830(%rip),%rdi        # 45f5 <array.0+0x415>
    2dc5:	e8 66 f2 ff ff       	callq  2030 <getenv@plt>
    2dca:	48 85 c0             	test   %rax,%rax
    2dcd:	74 20                	je     2def <read_line+0xb9>
    2dcf:	bf 00 00 00 00       	mov    $0x0,%edi
    2dd4:	e8 c7 f3 ff ff       	callq  21a0 <exit@plt>
    2dd9:	48 8d 3d f7 17 00 00 	lea    0x17f7(%rip),%rdi        # 45d7 <array.0+0x3f7>
    2de0:	e8 8b f2 ff ff       	callq  2070 <puts@plt>
    2de5:	bf 08 00 00 00       	mov    $0x8,%edi
    2dea:	e8 b1 f3 ff ff       	callq  21a0 <exit@plt>
    2def:	48 8b 05 da d9 00 00 	mov    0xd9da(%rip),%rax        # 107d0 <stdin@@GLIBC_2.2.5>
    2df6:	48 89 05 f3 d9 00 00 	mov    %rax,0xd9f3(%rip)        # 107f0 <infile>
    2dfd:	b8 00 00 00 00       	mov    $0x0,%eax
    2e02:	e8 0f fd ff ff       	callq  2b16 <skip>
    2e07:	48 85 c0             	test   %rax,%rax
    2e0a:	0f 85 3b ff ff ff    	jne    2d4b <read_line+0x15>
    2e10:	48 8d 3d c0 17 00 00 	lea    0x17c0(%rip),%rdi        # 45d7 <array.0+0x3f7>
    2e17:	e8 54 f2 ff ff       	callq  2070 <puts@plt>
    2e1c:	bf 00 00 00 00       	mov    $0x0,%edi
    2e21:	e8 7a f3 ff ff       	callq  21a0 <exit@plt>
    2e26:	48 8d 3d d3 17 00 00 	lea    0x17d3(%rip),%rdi        # 4600 <array.0+0x420>
    2e2d:	e8 3e f2 ff ff       	callq  2070 <puts@plt>
    2e32:	8b 05 40 da 00 00    	mov    0xda40(%rip),%eax        # 10878 <num_input_strings>
    2e38:	8d 50 01             	lea    0x1(%rax),%edx
    2e3b:	89 15 37 da 00 00    	mov    %edx,0xda37(%rip)        # 10878 <num_input_strings>
    2e41:	48 98                	cltq   
    2e43:	48 6b c0 78          	imul   $0x78,%rax,%rax
    2e47:	48 8d 15 32 da 00 00 	lea    0xda32(%rip),%rdx        # 10880 <input_strings>
    2e4e:	48 be 2a 2a 2a 74 72 	movabs $0x636e7572742a2a2a,%rsi
    2e55:	75 6e 63 
    2e58:	48 bf 61 74 65 64 2a 	movabs $0x2a2a2a64657461,%rdi
    2e5f:	2a 2a 00 
    2e62:	48 89 34 02          	mov    %rsi,(%rdx,%rax,1)
    2e66:	48 89 7c 02 08       	mov    %rdi,0x8(%rdx,%rax,1)
    2e6b:	e8 c5 fd ff ff       	callq  2c35 <explode_bomb>

0000000000002e70 <phase_defused>:
    2e70:	48 81 ec 98 00 00 00 	sub    $0x98,%rsp
    2e77:	64 48 8b 04 25 28 00 	mov    %fs:0x28,%rax
    2e7e:	00 00 
    2e80:	48 89 84 24 88 00 00 	mov    %rax,0x88(%rsp)
    2e87:	00 
    2e88:	31 c0                	xor    %eax,%eax
    2e8a:	bf 01 00 00 00       	mov    $0x1,%edi
    2e8f:	e8 d4 fc ff ff       	callq  2b68 <send_msg>
    2e94:	83 3d dd d9 00 00 06 	cmpl   $0x6,0xd9dd(%rip)        # 10878 <num_input_strings>
    2e9b:	74 1f                	je     2ebc <phase_defused+0x4c>
    2e9d:	48 8b 84 24 88 00 00 	mov    0x88(%rsp),%rax
    2ea4:	00 
    2ea5:	64 48 2b 04 25 28 00 	sub    %fs:0x28,%rax
    2eac:	00 00 
    2eae:	0f 85 87 00 00 00    	jne    2f3b <phase_defused+0xcb>
    2eb4:	48 81 c4 98 00 00 00 	add    $0x98,%rsp
    2ebb:	c3                   	retq   
    2ebc:	48 8d 4c 24 0c       	lea    0xc(%rsp),%rcx
    2ec1:	48 8d 54 24 08       	lea    0x8(%rsp),%rdx
    2ec6:	4c 8d 44 24 10       	lea    0x10(%rsp),%r8
    2ecb:	48 8d 35 49 17 00 00 	lea    0x1749(%rip),%rsi        # 461b <array.0+0x43b>
    2ed2:	48 8d 3d 0f db 00 00 	lea    0xdb0f(%rip),%rdi        # 109e8 <input_strings+0x168>
    2ed9:	b8 00 00 00 00       	mov    $0x0,%eax
    2ede:	e8 6d f2 ff ff       	callq  2150 <__isoc99_sscanf@plt>
    2ee3:	83 f8 03             	cmp    $0x3,%eax
    2ee6:	74 1a                	je     2f02 <phase_defused+0x92>
    2ee8:	48 8d 3d 79 14 00 00 	lea    0x1479(%rip),%rdi        # 4368 <array.0+0x188>
    2eef:	e8 7c f1 ff ff       	callq  2070 <puts@plt>
    2ef4:	48 8d 3d 9d 14 00 00 	lea    0x149d(%rip),%rdi        # 4398 <array.0+0x1b8>
    2efb:	e8 70 f1 ff ff       	callq  2070 <puts@plt>
    2f00:	eb 9b                	jmp    2e9d <phase_defused+0x2d>
    2f02:	48 8d 7c 24 10       	lea    0x10(%rsp),%rdi
    2f07:	48 8d 35 16 17 00 00 	lea    0x1716(%rip),%rsi        # 4624 <array.0+0x444>
    2f0e:	e8 46 fa ff ff       	callq  2959 <strings_not_equal>
    2f13:	85 c0                	test   %eax,%eax
    2f15:	75 d1                	jne    2ee8 <phase_defused+0x78>
    2f17:	48 8d 3d ea 13 00 00 	lea    0x13ea(%rip),%rdi        # 4308 <array.0+0x128>
    2f1e:	e8 4d f1 ff ff       	callq  2070 <puts@plt>
    2f23:	48 8d 3d 06 14 00 00 	lea    0x1406(%rip),%rdi        # 4330 <array.0+0x150>
    2f2a:	e8 41 f1 ff ff       	callq  2070 <puts@plt>
    2f2f:	b8 00 00 00 00       	mov    $0x0,%eax
    2f34:	e8 45 f9 ff ff       	callq  287e <secret_phase>
    2f39:	eb ad                	jmp    2ee8 <phase_defused+0x78>
    2f3b:	e8 60 f1 ff ff       	callq  20a0 <__stack_chk_fail@plt>

0000000000002f40 <sigalrm_handler>:
    2f40:	48 83 ec 08          	sub    $0x8,%rsp
    2f44:	ba 00 00 00 00       	mov    $0x0,%edx
    2f49:	48 8d 35 f0 16 00 00 	lea    0x16f0(%rip),%rsi        # 4640 <array.0+0x460>
    2f50:	48 8b 3d 89 d8 00 00 	mov    0xd889(%rip),%rdi        # 107e0 <stderr@@GLIBC_2.2.5>
    2f57:	b8 00 00 00 00       	mov    $0x0,%eax
    2f5c:	e8 cf f1 ff ff       	callq  2130 <fprintf@plt>
    2f61:	bf 01 00 00 00       	mov    $0x1,%edi
    2f66:	e8 35 f2 ff ff       	callq  21a0 <exit@plt>

0000000000002f6b <rio_writen>:
    2f6b:	41 56                	push   %r14
    2f6d:	41 55                	push   %r13
    2f6f:	41 54                	push   %r12
    2f71:	55                   	push   %rbp
    2f72:	53                   	push   %rbx
    2f73:	49 89 d5             	mov    %rdx,%r13
    2f76:	48 85 d2             	test   %rdx,%rdx
    2f79:	74 3b                	je     2fb6 <rio_writen+0x4b>
    2f7b:	41 89 fc             	mov    %edi,%r12d
    2f7e:	48 89 f5             	mov    %rsi,%rbp
    2f81:	48 89 d3             	mov    %rdx,%rbx
    2f84:	41 be 00 00 00 00    	mov    $0x0,%r14d
    2f8a:	eb 08                	jmp    2f94 <rio_writen+0x29>
    2f8c:	48 01 c5             	add    %rax,%rbp
    2f8f:	48 29 c3             	sub    %rax,%rbx
    2f92:	74 22                	je     2fb6 <rio_writen+0x4b>
    2f94:	48 89 da             	mov    %rbx,%rdx
    2f97:	48 89 ee             	mov    %rbp,%rsi
    2f9a:	44 89 e7             	mov    %r12d,%edi
    2f9d:	e8 de f0 ff ff       	callq  2080 <write@plt>
    2fa2:	48 85 c0             	test   %rax,%rax
    2fa5:	7f e5                	jg     2f8c <rio_writen+0x21>
    2fa7:	e8 a4 f0 ff ff       	callq  2050 <__errno_location@plt>
    2fac:	83 38 04             	cmpl   $0x4,(%rax)
    2faf:	75 11                	jne    2fc2 <rio_writen+0x57>
    2fb1:	4c 89 f0             	mov    %r14,%rax
    2fb4:	eb d6                	jmp    2f8c <rio_writen+0x21>
    2fb6:	4c 89 e8             	mov    %r13,%rax
    2fb9:	5b                   	pop    %rbx
    2fba:	5d                   	pop    %rbp
    2fbb:	41 5c                	pop    %r12
    2fbd:	41 5d                	pop    %r13
    2fbf:	41 5e                	pop    %r14
    2fc1:	c3                   	retq   
    2fc2:	48 c7 c0 ff ff ff ff 	mov    $0xffffffffffffffff,%rax
    2fc9:	eb ee                	jmp    2fb9 <rio_writen+0x4e>

0000000000002fcb <rio_readlineb>:
    2fcb:	41 56                	push   %r14
    2fcd:	41 55                	push   %r13
    2fcf:	41 54                	push   %r12
    2fd1:	55                   	push   %rbp
    2fd2:	53                   	push   %rbx
    2fd3:	49 89 f4             	mov    %rsi,%r12
    2fd6:	48 83 fa 01          	cmp    $0x1,%rdx
    2fda:	0f 86 92 00 00 00    	jbe    3072 <rio_readlineb+0xa7>
    2fe0:	48 89 fb             	mov    %rdi,%rbx
    2fe3:	4c 8d 74 16 ff       	lea    -0x1(%rsi,%rdx,1),%r14
    2fe8:	41 bd 01 00 00 00    	mov    $0x1,%r13d
    2fee:	48 8d 6f 10          	lea    0x10(%rdi),%rbp
    2ff2:	eb 56                	jmp    304a <rio_readlineb+0x7f>
    2ff4:	e8 57 f0 ff ff       	callq  2050 <__errno_location@plt>
    2ff9:	83 38 04             	cmpl   $0x4,(%rax)
    2ffc:	75 55                	jne    3053 <rio_readlineb+0x88>
    2ffe:	ba 00 20 00 00       	mov    $0x2000,%edx
    3003:	48 89 ee             	mov    %rbp,%rsi
    3006:	8b 3b                	mov    (%rbx),%edi
    3008:	e8 d3 f0 ff ff       	callq  20e0 <read@plt>
    300d:	89 c2                	mov    %eax,%edx
    300f:	89 43 04             	mov    %eax,0x4(%rbx)
    3012:	85 c0                	test   %eax,%eax
    3014:	78 de                	js     2ff4 <rio_readlineb+0x29>
    3016:	85 c0                	test   %eax,%eax
    3018:	74 42                	je     305c <rio_readlineb+0x91>
    301a:	48 89 6b 08          	mov    %rbp,0x8(%rbx)
    301e:	48 8b 43 08          	mov    0x8(%rbx),%rax
    3022:	0f b6 08             	movzbl (%rax),%ecx
    3025:	48 83 c0 01          	add    $0x1,%rax
    3029:	48 89 43 08          	mov    %rax,0x8(%rbx)
    302d:	83 ea 01             	sub    $0x1,%edx
    3030:	89 53 04             	mov    %edx,0x4(%rbx)
    3033:	49 83 c4 01          	add    $0x1,%r12
    3037:	41 88 4c 24 ff       	mov    %cl,-0x1(%r12)
    303c:	80 f9 0a             	cmp    $0xa,%cl
    303f:	74 3c                	je     307d <rio_readlineb+0xb2>
    3041:	41 83 c5 01          	add    $0x1,%r13d
    3045:	4d 39 f4             	cmp    %r14,%r12
    3048:	74 30                	je     307a <rio_readlineb+0xaf>
    304a:	8b 53 04             	mov    0x4(%rbx),%edx
    304d:	85 d2                	test   %edx,%edx
    304f:	7e ad                	jle    2ffe <rio_readlineb+0x33>
    3051:	eb cb                	jmp    301e <rio_readlineb+0x53>
    3053:	48 c7 c0 ff ff ff ff 	mov    $0xffffffffffffffff,%rax
    305a:	eb 05                	jmp    3061 <rio_readlineb+0x96>
    305c:	b8 00 00 00 00       	mov    $0x0,%eax
    3061:	85 c0                	test   %eax,%eax
    3063:	75 29                	jne    308e <rio_readlineb+0xc3>
    3065:	b8 00 00 00 00       	mov    $0x0,%eax
    306a:	41 83 fd 01          	cmp    $0x1,%r13d
    306e:	75 0d                	jne    307d <rio_readlineb+0xb2>
    3070:	eb 13                	jmp    3085 <rio_readlineb+0xba>
    3072:	41 bd 01 00 00 00    	mov    $0x1,%r13d
    3078:	eb 03                	jmp    307d <rio_readlineb+0xb2>
    307a:	4d 89 f4             	mov    %r14,%r12
    307d:	41 c6 04 24 00       	movb   $0x0,(%r12)
    3082:	49 63 c5             	movslq %r13d,%rax
    3085:	5b                   	pop    %rbx
    3086:	5d                   	pop    %rbp
    3087:	41 5c                	pop    %r12
    3089:	41 5d                	pop    %r13
    308b:	41 5e                	pop    %r14
    308d:	c3                   	retq   
    308e:	48 c7 c0 ff ff ff ff 	mov    $0xffffffffffffffff,%rax
    3095:	eb ee                	jmp    3085 <rio_readlineb+0xba>

0000000000003097 <submitr>:
    3097:	41 57                	push   %r15
    3099:	41 56                	push   %r14
    309b:	41 55                	push   %r13
    309d:	41 54                	push   %r12
    309f:	55                   	push   %rbp
    30a0:	53                   	push   %rbx
    30a1:	48 81 ec 78 a0 00 00 	sub    $0xa078,%rsp
    30a8:	48 89 7c 24 08       	mov    %rdi,0x8(%rsp)
    30ad:	89 f5                	mov    %esi,%ebp
    30af:	49 89 d4             	mov    %rdx,%r12
    30b2:	48 89 4c 24 10       	mov    %rcx,0x10(%rsp)
    30b7:	4c 89 44 24 20       	mov    %r8,0x20(%rsp)
    30bc:	4c 89 4c 24 18       	mov    %r9,0x18(%rsp)
    30c1:	48 8b 9c 24 b0 a0 00 	mov    0xa0b0(%rsp),%rbx
    30c8:	00 
    30c9:	4c 8b bc 24 b8 a0 00 	mov    0xa0b8(%rsp),%r15
    30d0:	00 
    30d1:	64 48 8b 04 25 28 00 	mov    %fs:0x28,%rax
    30d8:	00 00 
    30da:	48 89 84 24 68 a0 00 	mov    %rax,0xa068(%rsp)
    30e1:	00 
    30e2:	31 c0                	xor    %eax,%eax
    30e4:	c7 44 24 3c 00 00 00 	movl   $0x0,0x3c(%rsp)
    30eb:	00 
    30ec:	ba 00 00 00 00       	mov    $0x0,%edx
    30f1:	be 01 00 00 00       	mov    $0x1,%esi
    30f6:	bf 02 00 00 00       	mov    $0x2,%edi
    30fb:	e8 e0 f0 ff ff       	callq  21e0 <socket@plt>
    3100:	85 c0                	test   %eax,%eax
    3102:	0f 88 0d 01 00 00    	js     3215 <submitr+0x17e>
    3108:	41 89 c6             	mov    %eax,%r14d
    310b:	48 8b 7c 24 08       	mov    0x8(%rsp),%rdi
    3110:	e8 0b f0 ff ff       	callq  2120 <gethostbyname@plt>
    3115:	48 85 c0             	test   %rax,%rax
    3118:	0f 84 47 01 00 00    	je     3265 <submitr+0x1ce>
    311e:	4c 8d 6c 24 40       	lea    0x40(%rsp),%r13
    3123:	48 c7 44 24 40 00 00 	movq   $0x0,0x40(%rsp)
    312a:	00 00 
    312c:	48 c7 44 24 48 00 00 	movq   $0x0,0x48(%rsp)
    3133:	00 00 
    3135:	66 c7 44 24 40 02 00 	movw   $0x2,0x40(%rsp)
    313c:	48 63 50 14          	movslq 0x14(%rax),%rdx
    3140:	48 8b 40 18          	mov    0x18(%rax),%rax
    3144:	48 8d 7c 24 44       	lea    0x44(%rsp),%rdi
    3149:	48 8b 30             	mov    (%rax),%rsi
    314c:	e8 0f f0 ff ff       	callq  2160 <memmove@plt>
    3151:	66 c1 c5 08          	rol    $0x8,%bp
    3155:	66 89 6c 24 42       	mov    %bp,0x42(%rsp)
    315a:	ba 10 00 00 00       	mov    $0x10,%edx
    315f:	4c 89 ee             	mov    %r13,%rsi
    3162:	44 89 f7             	mov    %r14d,%edi
    3165:	e8 46 f0 ff ff       	callq  21b0 <connect@plt>
    316a:	85 c0                	test   %eax,%eax
    316c:	0f 88 5e 01 00 00    	js     32d0 <submitr+0x239>
    3172:	48 89 df             	mov    %rbx,%rdi
    3175:	e8 16 ef ff ff       	callq  2090 <strlen@plt>
    317a:	48 89 c5             	mov    %rax,%rbp
    317d:	4c 89 e7             	mov    %r12,%rdi
    3180:	e8 0b ef ff ff       	callq  2090 <strlen@plt>
    3185:	49 89 c5             	mov    %rax,%r13
    3188:	48 8b 7c 24 10       	mov    0x10(%rsp),%rdi
    318d:	e8 fe ee ff ff       	callq  2090 <strlen@plt>
    3192:	49 89 c4             	mov    %rax,%r12
    3195:	48 8b 7c 24 18       	mov    0x18(%rsp),%rdi
    319a:	e8 f1 ee ff ff       	callq  2090 <strlen@plt>
    319f:	48 89 c2             	mov    %rax,%rdx
    31a2:	4b 8d 84 25 80 00 00 	lea    0x80(%r13,%r12,1),%rax
    31a9:	00 
    31aa:	48 01 d0             	add    %rdx,%rax
    31ad:	48 8d 54 6d 00       	lea    0x0(%rbp,%rbp,2),%rdx
    31b2:	48 01 d0             	add    %rdx,%rax
    31b5:	48 3d 00 20 00 00    	cmp    $0x2000,%rax
    31bb:	0f 87 6c 01 00 00    	ja     332d <submitr+0x296>
    31c1:	48 8d 94 24 60 40 00 	lea    0x4060(%rsp),%rdx
    31c8:	00 
    31c9:	b9 00 04 00 00       	mov    $0x400,%ecx
    31ce:	b8 00 00 00 00       	mov    $0x0,%eax
    31d3:	48 89 d7             	mov    %rdx,%rdi
    31d6:	f3 48 ab             	rep stos %rax,%es:(%rdi)
    31d9:	48 89 df             	mov    %rbx,%rdi
    31dc:	e8 af ee ff ff       	callq  2090 <strlen@plt>
    31e1:	85 c0                	test   %eax,%eax
    31e3:	0f 84 13 05 00 00    	je     36fc <submitr+0x665>
    31e9:	8d 40 ff             	lea    -0x1(%rax),%eax
    31ec:	4c 8d 64 03 01       	lea    0x1(%rbx,%rax,1),%r12
    31f1:	48 8d ac 24 60 40 00 	lea    0x4060(%rsp),%rbp
    31f8:	00 
    31f9:	48 8d 84 24 60 80 00 	lea    0x8060(%rsp),%rax
    3200:	00 
    3201:	48 89 44 24 28       	mov    %rax,0x28(%rsp)
    3206:	49 bd d9 ff 00 00 00 	movabs $0x2000000000ffd9,%r13
    320d:	00 20 00 
    3210:	e9 a5 01 00 00       	jmpq   33ba <submitr+0x323>
    3215:	48 b8 45 72 72 6f 72 	movabs $0x43203a726f727245,%rax
    321c:	3a 20 43 
    321f:	48 ba 6c 69 65 6e 74 	movabs $0x6e7520746e65696c,%rdx
    3226:	20 75 6e 
    3229:	49 89 07             	mov    %rax,(%r15)
    322c:	49 89 57 08          	mov    %rdx,0x8(%r15)
    3230:	48 b8 61 62 6c 65 20 	movabs $0x206f7420656c6261,%rax
    3237:	74 6f 20 
    323a:	48 ba 63 72 65 61 74 	movabs $0x7320657461657263,%rdx
    3241:	65 20 73 
    3244:	49 89 47 10          	mov    %rax,0x10(%r15)
    3248:	49 89 57 18          	mov    %rdx,0x18(%r15)
    324c:	41 c7 47 20 6f 63 6b 	movl   $0x656b636f,0x20(%r15)
    3253:	65 
    3254:	66 41 c7 47 24 74 00 	movw   $0x74,0x24(%r15)
    325b:	b8 ff ff ff ff       	mov    $0xffffffff,%eax
    3260:	e9 6e 03 00 00       	jmpq   35d3 <submitr+0x53c>
    3265:	48 b8 45 72 72 6f 72 	movabs $0x44203a726f727245,%rax
    326c:	3a 20 44 
    326f:	48 ba 4e 53 20 69 73 	movabs $0x6e7520736920534e,%rdx
    3276:	20 75 6e 
    3279:	49 89 07             	mov    %rax,(%r15)
    327c:	49 89 57 08          	mov    %rdx,0x8(%r15)
    3280:	48 b8 61 62 6c 65 20 	movabs $0x206f7420656c6261,%rax
    3287:	74 6f 20 
    328a:	48 ba 72 65 73 6f 6c 	movabs $0x2065766c6f736572,%rdx
    3291:	76 65 20 
    3294:	49 89 47 10          	mov    %rax,0x10(%r15)
    3298:	49 89 57 18          	mov    %rdx,0x18(%r15)
    329c:	48 b8 73 65 72 76 65 	movabs $0x6120726576726573,%rax
    32a3:	72 20 61 
    32a6:	49 89 47 20          	mov    %rax,0x20(%r15)
    32aa:	41 c7 47 28 64 64 72 	movl   $0x65726464,0x28(%r15)
    32b1:	65 
    32b2:	66 41 c7 47 2c 73 73 	movw   $0x7373,0x2c(%r15)
    32b9:	41 c6 47 2e 00       	movb   $0x0,0x2e(%r15)
    32be:	44 89 f7             	mov    %r14d,%edi
    32c1:	e8 0a ee ff ff       	callq  20d0 <close@plt>
    32c6:	b8 ff ff ff ff       	mov    $0xffffffff,%eax
    32cb:	e9 03 03 00 00       	jmpq   35d3 <submitr+0x53c>
    32d0:	48 b8 45 72 72 6f 72 	movabs $0x55203a726f727245,%rax
    32d7:	3a 20 55 
    32da:	48 ba 6e 61 62 6c 65 	movabs $0x6f7420656c62616e,%rdx
    32e1:	20 74 6f 
    32e4:	49 89 07             	mov    %rax,(%r15)
    32e7:	49 89 57 08          	mov    %rdx,0x8(%r15)
    32eb:	48 b8 20 63 6f 6e 6e 	movabs $0x7463656e6e6f6320,%rax
    32f2:	65 63 74 
    32f5:	48 ba 20 74 6f 20 74 	movabs $0x20656874206f7420,%rdx
    32fc:	68 65 20 
    32ff:	49 89 47 10          	mov    %rax,0x10(%r15)
    3303:	49 89 57 18          	mov    %rdx,0x18(%r15)
    3307:	41 c7 47 20 73 65 72 	movl   $0x76726573,0x20(%r15)
    330e:	76 
    330f:	66 41 c7 47 24 65 72 	movw   $0x7265,0x24(%r15)
    3316:	41 c6 47 26 00       	movb   $0x0,0x26(%r15)
    331b:	44 89 f7             	mov    %r14d,%edi
    331e:	e8 ad ed ff ff       	callq  20d0 <close@plt>
    3323:	b8 ff ff ff ff       	mov    $0xffffffff,%eax
    3328:	e9 a6 02 00 00       	jmpq   35d3 <submitr+0x53c>
    332d:	48 b8 45 72 72 6f 72 	movabs $0x52203a726f727245,%rax
    3334:	3a 20 52 
    3337:	48 ba 65 73 75 6c 74 	movabs $0x747320746c757365,%rdx
    333e:	20 73 74 
    3341:	49 89 07             	mov    %rax,(%r15)
    3344:	49 89 57 08          	mov    %rdx,0x8(%r15)
    3348:	48 b8 72 69 6e 67 20 	movabs $0x6f6f7420676e6972,%rax
    334f:	74 6f 6f 
    3352:	48 ba 20 6c 61 72 67 	movabs $0x202e656772616c20,%rdx
    3359:	65 2e 20 
    335c:	49 89 47 10          	mov    %rax,0x10(%r15)
    3360:	49 89 57 18          	mov    %rdx,0x18(%r15)
    3364:	48 b8 49 6e 63 72 65 	movabs $0x6573616572636e49,%rax
    336b:	61 73 65 
    336e:	48 ba 20 53 55 42 4d 	movabs $0x5254494d42555320,%rdx
    3375:	49 54 52 
    3378:	49 89 47 20          	mov    %rax,0x20(%r15)
    337c:	49 89 57 28          	mov    %rdx,0x28(%r15)
    3380:	48 b8 5f 4d 41 58 42 	movabs $0x46554258414d5f,%rax
    3387:	55 46 00 
    338a:	49 89 47 30          	mov    %rax,0x30(%r15)
    338e:	44 89 f7             	mov    %r14d,%edi
    3391:	e8 3a ed ff ff       	callq  20d0 <close@plt>
    3396:	b8 ff ff ff ff       	mov    $0xffffffff,%eax
    339b:	e9 33 02 00 00       	jmpq   35d3 <submitr+0x53c>
    33a0:	49 0f a3 c5          	bt     %rax,%r13
    33a4:	73 1e                	jae    33c4 <submitr+0x32d>
    33a6:	88 55 00             	mov    %dl,0x0(%rbp)
    33a9:	48 8d 6d 01          	lea    0x1(%rbp),%rbp
    33ad:	48 83 c3 01          	add    $0x1,%rbx
    33b1:	4c 39 e3             	cmp    %r12,%rbx
    33b4:	0f 84 42 03 00 00    	je     36fc <submitr+0x665>
    33ba:	0f b6 13             	movzbl (%rbx),%edx
    33bd:	8d 42 d6             	lea    -0x2a(%rdx),%eax
    33c0:	3c 35                	cmp    $0x35,%al
    33c2:	76 dc                	jbe    33a0 <submitr+0x309>
    33c4:	89 d0                	mov    %edx,%eax
    33c6:	83 e0 df             	and    $0xffffffdf,%eax
    33c9:	83 e8 41             	sub    $0x41,%eax
    33cc:	3c 19                	cmp    $0x19,%al
    33ce:	76 d6                	jbe    33a6 <submitr+0x30f>
    33d0:	80 fa 20             	cmp    $0x20,%dl
    33d3:	74 50                	je     3425 <submitr+0x38e>
    33d5:	8d 42 e0             	lea    -0x20(%rdx),%eax
    33d8:	3c 5f                	cmp    $0x5f,%al
    33da:	76 09                	jbe    33e5 <submitr+0x34e>
    33dc:	80 fa 09             	cmp    $0x9,%dl
    33df:	0f 85 8a 02 00 00    	jne    366f <submitr+0x5d8>
    33e5:	0f b6 d2             	movzbl %dl,%edx
    33e8:	48 8d 35 1f 13 00 00 	lea    0x131f(%rip),%rsi        # 470e <array.0+0x52e>
    33ef:	48 8b 7c 24 28       	mov    0x28(%rsp),%rdi
    33f4:	b8 00 00 00 00       	mov    $0x0,%eax
    33f9:	e8 92 ed ff ff       	callq  2190 <sprintf@plt>
    33fe:	0f b6 84 24 60 80 00 	movzbl 0x8060(%rsp),%eax
    3405:	00 
    3406:	88 45 00             	mov    %al,0x0(%rbp)
    3409:	0f b6 84 24 61 80 00 	movzbl 0x8061(%rsp),%eax
    3410:	00 
    3411:	88 45 01             	mov    %al,0x1(%rbp)
    3414:	0f b6 84 24 62 80 00 	movzbl 0x8062(%rsp),%eax
    341b:	00 
    341c:	88 45 02             	mov    %al,0x2(%rbp)
    341f:	48 8d 6d 03          	lea    0x3(%rbp),%rbp
    3423:	eb 88                	jmp    33ad <submitr+0x316>
    3425:	c6 45 00 2b          	movb   $0x2b,0x0(%rbp)
    3429:	48 8d 6d 01          	lea    0x1(%rbp),%rbp
    342d:	e9 7b ff ff ff       	jmpq   33ad <submitr+0x316>
    3432:	48 b8 45 72 72 6f 72 	movabs $0x43203a726f727245,%rax
    3439:	3a 20 43 
    343c:	48 ba 6c 69 65 6e 74 	movabs $0x6e7520746e65696c,%rdx
    3443:	20 75 6e 
    3446:	49 89 07             	mov    %rax,(%r15)
    3449:	49 89 57 08          	mov    %rdx,0x8(%r15)
    344d:	48 b8 61 62 6c 65 20 	movabs $0x206f7420656c6261,%rax
    3454:	74 6f 20 
    3457:	48 ba 77 72 69 74 65 	movabs $0x6f74206574697277,%rdx
    345e:	20 74 6f 
    3461:	49 89 47 10          	mov    %rax,0x10(%r15)
    3465:	49 89 57 18          	mov    %rdx,0x18(%r15)
    3469:	48 b8 20 74 68 65 20 	movabs $0x7265732065687420,%rax
    3470:	73 65 72 
    3473:	49 89 47 20          	mov    %rax,0x20(%r15)
    3477:	41 c7 47 28 76 65 72 	movl   $0x726576,0x28(%r15)
    347e:	00 
    347f:	44 89 f7             	mov    %r14d,%edi
    3482:	e8 49 ec ff ff       	callq  20d0 <close@plt>
    3487:	b8 ff ff ff ff       	mov    $0xffffffff,%eax
    348c:	e9 42 01 00 00       	jmpq   35d3 <submitr+0x53c>
    3491:	48 b8 45 72 72 6f 72 	movabs $0x43203a726f727245,%rax
    3498:	3a 20 43 
    349b:	48 ba 6c 69 65 6e 74 	movabs $0x6e7520746e65696c,%rdx
    34a2:	20 75 6e 
    34a5:	49 89 07             	mov    %rax,(%r15)
    34a8:	49 89 57 08          	mov    %rdx,0x8(%r15)
    34ac:	48 b8 61 62 6c 65 20 	movabs $0x206f7420656c6261,%rax
    34b3:	74 6f 20 
    34b6:	48 ba 77 72 69 74 65 	movabs $0x6f74206574697277,%rdx
    34bd:	20 74 6f 
    34c0:	49 89 47 10          	mov    %rax,0x10(%r15)
    34c4:	49 89 57 18          	mov    %rdx,0x18(%r15)
    34c8:	48 b8 20 74 68 65 20 	movabs $0x7265732065687420,%rax
    34cf:	73 65 72 
    34d2:	49 89 47 20          	mov    %rax,0x20(%r15)
    34d6:	41 c7 47 28 76 65 72 	movl   $0x726576,0x28(%r15)
    34dd:	00 
    34de:	44 89 f7             	mov    %r14d,%edi
    34e1:	e8 ea eb ff ff       	callq  20d0 <close@plt>
    34e6:	b8 ff ff ff ff       	mov    $0xffffffff,%eax
    34eb:	e9 e3 00 00 00       	jmpq   35d3 <submitr+0x53c>
    34f0:	48 b8 45 72 72 6f 72 	movabs $0x43203a726f727245,%rax
    34f7:	3a 20 43 
    34fa:	48 ba 6c 69 65 6e 74 	movabs $0x6e7520746e65696c,%rdx
    3501:	20 75 6e 
    3504:	49 89 07             	mov    %rax,(%r15)
    3507:	49 89 57 08          	mov    %rdx,0x8(%r15)
    350b:	48 b8 61 62 6c 65 20 	movabs $0x206f7420656c6261,%rax
    3512:	74 6f 20 
    3515:	48 ba 72 65 61 64 20 	movabs $0x7269662064616572,%rdx
    351c:	66 69 72 
    351f:	49 89 47 10          	mov    %rax,0x10(%r15)
    3523:	49 89 57 18          	mov    %rdx,0x18(%r15)
    3527:	48 b8 73 74 20 68 65 	movabs $0x6564616568207473,%rax
    352e:	61 64 65 
    3531:	48 ba 72 20 66 72 6f 	movabs $0x73206d6f72662072,%rdx
    3538:	6d 20 73 
    353b:	49 89 47 20          	mov    %rax,0x20(%r15)
    353f:	49 89 57 28          	mov    %rdx,0x28(%r15)
    3543:	41 c7 47 30 65 72 76 	movl   $0x65767265,0x30(%r15)
    354a:	65 
    354b:	66 41 c7 47 34 72 00 	movw   $0x72,0x34(%r15)
    3552:	44 89 f7             	mov    %r14d,%edi
    3555:	e8 76 eb ff ff       	callq  20d0 <close@plt>
    355a:	b8 ff ff ff ff       	mov    $0xffffffff,%eax
    355f:	eb 72                	jmp    35d3 <submitr+0x53c>
    3561:	48 8d 8c 24 60 80 00 	lea    0x8060(%rsp),%rcx
    3568:	00 
    3569:	48 8d 35 f8 10 00 00 	lea    0x10f8(%rip),%rsi        # 4668 <array.0+0x488>
    3570:	4c 89 ff             	mov    %r15,%rdi
    3573:	b8 00 00 00 00       	mov    $0x0,%eax
    3578:	e8 13 ec ff ff       	callq  2190 <sprintf@plt>
    357d:	44 89 f7             	mov    %r14d,%edi
    3580:	e8 4b eb ff ff       	callq  20d0 <close@plt>
    3585:	b8 ff ff ff ff       	mov    $0xffffffff,%eax
    358a:	eb 47                	jmp    35d3 <submitr+0x53c>
    358c:	48 8d b4 24 60 20 00 	lea    0x2060(%rsp),%rsi
    3593:	00 
    3594:	48 8d 7c 24 50       	lea    0x50(%rsp),%rdi
    3599:	ba 00 20 00 00       	mov    $0x2000,%edx
    359e:	e8 28 fa ff ff       	callq  2fcb <rio_readlineb>
    35a3:	48 85 c0             	test   %rax,%rax
    35a6:	7e 54                	jle    35fc <submitr+0x565>
    35a8:	48 8d b4 24 60 20 00 	lea    0x2060(%rsp),%rsi
    35af:	00 
    35b0:	4c 89 ff             	mov    %r15,%rdi
    35b3:	e8 a8 ea ff ff       	callq  2060 <strcpy@plt>
    35b8:	44 89 f7             	mov    %r14d,%edi
    35bb:	e8 10 eb ff ff       	callq  20d0 <close@plt>
    35c0:	48 8d 35 6c 11 00 00 	lea    0x116c(%rip),%rsi        # 4733 <array.0+0x553>
    35c7:	4c 89 ff             	mov    %r15,%rdi
    35ca:	e8 31 eb ff ff       	callq  2100 <strcmp@plt>
    35cf:	f7 d8                	neg    %eax
    35d1:	19 c0                	sbb    %eax,%eax
    35d3:	48 8b 94 24 68 a0 00 	mov    0xa068(%rsp),%rdx
    35da:	00 
    35db:	64 48 2b 14 25 28 00 	sub    %fs:0x28,%rdx
    35e2:	00 00 
    35e4:	0f 85 be 02 00 00    	jne    38a8 <submitr+0x811>
    35ea:	48 81 c4 78 a0 00 00 	add    $0xa078,%rsp
    35f1:	5b                   	pop    %rbx
    35f2:	5d                   	pop    %rbp
    35f3:	41 5c                	pop    %r12
    35f5:	41 5d                	pop    %r13
    35f7:	41 5e                	pop    %r14
    35f9:	41 5f                	pop    %r15
    35fb:	c3                   	retq   
    35fc:	48 b8 45 72 72 6f 72 	movabs $0x43203a726f727245,%rax
    3603:	3a 20 43 
    3606:	48 ba 6c 69 65 6e 74 	movabs $0x6e7520746e65696c,%rdx
    360d:	20 75 6e 
    3610:	49 89 07             	mov    %rax,(%r15)
    3613:	49 89 57 08          	mov    %rdx,0x8(%r15)
    3617:	48 b8 61 62 6c 65 20 	movabs $0x206f7420656c6261,%rax
    361e:	74 6f 20 
    3621:	48 ba 72 65 61 64 20 	movabs $0x6174732064616572,%rdx
    3628:	73 74 61 
    362b:	49 89 47 10          	mov    %rax,0x10(%r15)
    362f:	49 89 57 18          	mov    %rdx,0x18(%r15)
    3633:	48 b8 74 75 73 20 6d 	movabs $0x7373656d20737574,%rax
    363a:	65 73 73 
    363d:	48 ba 61 67 65 20 66 	movabs $0x6d6f726620656761,%rdx
    3644:	72 6f 6d 
    3647:	49 89 47 20          	mov    %rax,0x20(%r15)
    364b:	49 89 57 28          	mov    %rdx,0x28(%r15)
    364f:	48 b8 20 73 65 72 76 	movabs $0x72657672657320,%rax
    3656:	65 72 00 
    3659:	49 89 47 30          	mov    %rax,0x30(%r15)
    365d:	44 89 f7             	mov    %r14d,%edi
    3660:	e8 6b ea ff ff       	callq  20d0 <close@plt>
    3665:	b8 ff ff ff ff       	mov    $0xffffffff,%eax
    366a:	e9 64 ff ff ff       	jmpq   35d3 <submitr+0x53c>
    366f:	48 b8 45 72 72 6f 72 	movabs $0x52203a726f727245,%rax
    3676:	3a 20 52 
    3679:	48 ba 65 73 75 6c 74 	movabs $0x747320746c757365,%rdx
    3680:	20 73 74 
    3683:	49 89 07             	mov    %rax,(%r15)
    3686:	49 89 57 08          	mov    %rdx,0x8(%r15)
    368a:	48 b8 72 69 6e 67 20 	movabs $0x6e6f6320676e6972,%rax
    3691:	63 6f 6e 
    3694:	48 ba 74 61 69 6e 73 	movabs $0x6e6120736e696174,%rdx
    369b:	20 61 6e 
    369e:	49 89 47 10          	mov    %rax,0x10(%r15)
    36a2:	49 89 57 18          	mov    %rdx,0x18(%r15)
    36a6:	48 b8 20 69 6c 6c 65 	movabs $0x6c6167656c6c6920,%rax
    36ad:	67 61 6c 
    36b0:	48 ba 20 6f 72 20 75 	movabs $0x72706e7520726f20,%rdx
    36b7:	6e 70 72 
    36ba:	49 89 47 20          	mov    %rax,0x20(%r15)
    36be:	49 89 57 28          	mov    %rdx,0x28(%r15)
    36c2:	48 b8 69 6e 74 61 62 	movabs $0x20656c6261746e69,%rax
    36c9:	6c 65 20 
    36cc:	48 ba 63 68 61 72 61 	movabs $0x6574636172616863,%rdx
    36d3:	63 74 65 
    36d6:	49 89 47 30          	mov    %rax,0x30(%r15)
    36da:	49 89 57 38          	mov    %rdx,0x38(%r15)
    36de:	66 41 c7 47 40 72 2e 	movw   $0x2e72,0x40(%r15)
    36e5:	41 c6 47 42 00       	movb   $0x0,0x42(%r15)
    36ea:	44 89 f7             	mov    %r14d,%edi
    36ed:	e8 de e9 ff ff       	callq  20d0 <close@plt>
    36f2:	b8 ff ff ff ff       	mov    $0xffffffff,%eax
    36f7:	e9 d7 fe ff ff       	jmpq   35d3 <submitr+0x53c>
    36fc:	48 8d 9c 24 60 20 00 	lea    0x2060(%rsp),%rbx
    3703:	00 
    3704:	4c 8d 8c 24 60 40 00 	lea    0x4060(%rsp),%r9
    370b:	00 
    370c:	4c 8b 44 24 18       	mov    0x18(%rsp),%r8
    3711:	48 8b 4c 24 20       	mov    0x20(%rsp),%rcx
    3716:	48 8b 54 24 10       	mov    0x10(%rsp),%rdx
    371b:	48 8d 35 76 0f 00 00 	lea    0xf76(%rip),%rsi        # 4698 <array.0+0x4b8>
    3722:	48 89 df             	mov    %rbx,%rdi
    3725:	b8 00 00 00 00       	mov    $0x0,%eax
    372a:	e8 61 ea ff ff       	callq  2190 <sprintf@plt>
    372f:	48 89 df             	mov    %rbx,%rdi
    3732:	e8 59 e9 ff ff       	callq  2090 <strlen@plt>
    3737:	48 89 c2             	mov    %rax,%rdx
    373a:	48 89 de             	mov    %rbx,%rsi
    373d:	44 89 f7             	mov    %r14d,%edi
    3740:	e8 26 f8 ff ff       	callq  2f6b <rio_writen>
    3745:	48 85 c0             	test   %rax,%rax
    3748:	0f 88 e4 fc ff ff    	js     3432 <submitr+0x39b>
    374e:	48 8d 9c 24 60 20 00 	lea    0x2060(%rsp),%rbx
    3755:	00 
    3756:	48 8b 54 24 08       	mov    0x8(%rsp),%rdx
    375b:	48 8d 35 b3 0f 00 00 	lea    0xfb3(%rip),%rsi        # 4715 <array.0+0x535>
    3762:	48 89 df             	mov    %rbx,%rdi
    3765:	b8 00 00 00 00       	mov    $0x0,%eax
    376a:	e8 21 ea ff ff       	callq  2190 <sprintf@plt>
    376f:	48 89 df             	mov    %rbx,%rdi
    3772:	e8 19 e9 ff ff       	callq  2090 <strlen@plt>
    3777:	48 89 c2             	mov    %rax,%rdx
    377a:	48 89 de             	mov    %rbx,%rsi
    377d:	44 89 f7             	mov    %r14d,%edi
    3780:	e8 e6 f7 ff ff       	callq  2f6b <rio_writen>
    3785:	48 85 c0             	test   %rax,%rax
    3788:	0f 88 03 fd ff ff    	js     3491 <submitr+0x3fa>
    378e:	44 89 74 24 50       	mov    %r14d,0x50(%rsp)
    3793:	c7 44 24 54 00 00 00 	movl   $0x0,0x54(%rsp)
    379a:	00 
    379b:	48 8d 7c 24 50       	lea    0x50(%rsp),%rdi
    37a0:	48 8d 44 24 60       	lea    0x60(%rsp),%rax
    37a5:	48 89 44 24 58       	mov    %rax,0x58(%rsp)
    37aa:	48 8d b4 24 60 20 00 	lea    0x2060(%rsp),%rsi
    37b1:	00 
    37b2:	ba 00 20 00 00       	mov    $0x2000,%edx
    37b7:	e8 0f f8 ff ff       	callq  2fcb <rio_readlineb>
    37bc:	48 85 c0             	test   %rax,%rax
    37bf:	0f 8e 2b fd ff ff    	jle    34f0 <submitr+0x459>
    37c5:	48 8d 4c 24 3c       	lea    0x3c(%rsp),%rcx
    37ca:	48 8d 94 24 60 60 00 	lea    0x6060(%rsp),%rdx
    37d1:	00 
    37d2:	48 8d bc 24 60 20 00 	lea    0x2060(%rsp),%rdi
    37d9:	00 
    37da:	4c 8d 84 24 60 80 00 	lea    0x8060(%rsp),%r8
    37e1:	00 
    37e2:	48 8d 35 39 0f 00 00 	lea    0xf39(%rip),%rsi        # 4722 <array.0+0x542>
    37e9:	b8 00 00 00 00       	mov    $0x0,%eax
    37ee:	e8 5d e9 ff ff       	callq  2150 <__isoc99_sscanf@plt>
    37f3:	8b 54 24 3c          	mov    0x3c(%rsp),%edx
    37f7:	81 fa c8 00 00 00    	cmp    $0xc8,%edx
    37fd:	0f 85 5e fd ff ff    	jne    3561 <submitr+0x4ca>
    3803:	48 8d 1d 15 0f 00 00 	lea    0xf15(%rip),%rbx        # 471f <array.0+0x53f>
    380a:	48 8d bc 24 60 20 00 	lea    0x2060(%rsp),%rdi
    3811:	00 
    3812:	48 89 de             	mov    %rbx,%rsi
    3815:	e8 e6 e8 ff ff       	callq  2100 <strcmp@plt>
    381a:	85 c0                	test   %eax,%eax
    381c:	0f 84 6a fd ff ff    	je     358c <submitr+0x4f5>
    3822:	48 8d b4 24 60 20 00 	lea    0x2060(%rsp),%rsi
    3829:	00 
    382a:	48 8d 7c 24 50       	lea    0x50(%rsp),%rdi
    382f:	ba 00 20 00 00       	mov    $0x2000,%edx
    3834:	e8 92 f7 ff ff       	callq  2fcb <rio_readlineb>
    3839:	48 85 c0             	test   %rax,%rax
    383c:	7f cc                	jg     380a <submitr+0x773>
    383e:	48 b8 45 72 72 6f 72 	movabs $0x43203a726f727245,%rax
    3845:	3a 20 43 
    3848:	48 ba 6c 69 65 6e 74 	movabs $0x6e7520746e65696c,%rdx
    384f:	20 75 6e 
    3852:	49 89 07             	mov    %rax,(%r15)
    3855:	49 89 57 08          	mov    %rdx,0x8(%r15)
    3859:	48 b8 61 62 6c 65 20 	movabs $0x206f7420656c6261,%rax
    3860:	74 6f 20 
    3863:	48 ba 72 65 61 64 20 	movabs $0x6165682064616572,%rdx
    386a:	68 65 61 
    386d:	49 89 47 10          	mov    %rax,0x10(%r15)
    3871:	49 89 57 18          	mov    %rdx,0x18(%r15)
    3875:	48 b8 64 65 72 73 20 	movabs $0x6f72662073726564,%rax
    387c:	66 72 6f 
    387f:	48 ba 6d 20 73 65 72 	movabs $0x726576726573206d,%rdx
    3886:	76 65 72 
    3889:	49 89 47 20          	mov    %rax,0x20(%r15)
    388d:	49 89 57 28          	mov    %rdx,0x28(%r15)
    3891:	41 c6 47 30 00       	movb   $0x0,0x30(%r15)
    3896:	44 89 f7             	mov    %r14d,%edi
    3899:	e8 32 e8 ff ff       	callq  20d0 <close@plt>
    389e:	b8 ff ff ff ff       	mov    $0xffffffff,%eax
    38a3:	e9 2b fd ff ff       	jmpq   35d3 <submitr+0x53c>
    38a8:	e8 f3 e7 ff ff       	callq  20a0 <__stack_chk_fail@plt>

00000000000038ad <init_timeout>:
    38ad:	85 ff                	test   %edi,%edi
    38af:	75 01                	jne    38b2 <init_timeout+0x5>
    38b1:	c3                   	retq   
    38b2:	53                   	push   %rbx
    38b3:	89 fb                	mov    %edi,%ebx
    38b5:	48 8d 35 84 f6 ff ff 	lea    -0x97c(%rip),%rsi        # 2f40 <sigalrm_handler>
    38bc:	bf 0e 00 00 00       	mov    $0xe,%edi
    38c1:	e8 4a e8 ff ff       	callq  2110 <signal@plt>
    38c6:	85 db                	test   %ebx,%ebx
    38c8:	b8 00 00 00 00       	mov    $0x0,%eax
    38cd:	0f 49 c3             	cmovns %ebx,%eax
    38d0:	89 c7                	mov    %eax,%edi
    38d2:	e8 e9 e7 ff ff       	callq  20c0 <alarm@plt>
    38d7:	5b                   	pop    %rbx
    38d8:	c3                   	retq   

00000000000038d9 <init_driver>:
    38d9:	41 54                	push   %r12
    38db:	55                   	push   %rbp
    38dc:	53                   	push   %rbx
    38dd:	48 83 ec 20          	sub    $0x20,%rsp
    38e1:	48 89 fd             	mov    %rdi,%rbp
    38e4:	64 48 8b 04 25 28 00 	mov    %fs:0x28,%rax
    38eb:	00 00 
    38ed:	48 89 44 24 18       	mov    %rax,0x18(%rsp)
    38f2:	31 c0                	xor    %eax,%eax
    38f4:	be 01 00 00 00       	mov    $0x1,%esi
    38f9:	bf 0d 00 00 00       	mov    $0xd,%edi
    38fe:	e8 0d e8 ff ff       	callq  2110 <signal@plt>
    3903:	be 01 00 00 00       	mov    $0x1,%esi
    3908:	bf 1d 00 00 00       	mov    $0x1d,%edi
    390d:	e8 fe e7 ff ff       	callq  2110 <signal@plt>
    3912:	be 01 00 00 00       	mov    $0x1,%esi
    3917:	bf 1d 00 00 00       	mov    $0x1d,%edi
    391c:	e8 ef e7 ff ff       	callq  2110 <signal@plt>
    3921:	ba 00 00 00 00       	mov    $0x0,%edx
    3926:	be 01 00 00 00       	mov    $0x1,%esi
    392b:	bf 02 00 00 00       	mov    $0x2,%edi
    3930:	e8 ab e8 ff ff       	callq  21e0 <socket@plt>
    3935:	85 c0                	test   %eax,%eax
    3937:	0f 88 97 00 00 00    	js     39d4 <init_driver+0xfb>
    393d:	89 c3                	mov    %eax,%ebx
    393f:	48 8d 3d f0 0d 00 00 	lea    0xdf0(%rip),%rdi        # 4736 <array.0+0x556>
    3946:	e8 d5 e7 ff ff       	callq  2120 <gethostbyname@plt>
    394b:	48 85 c0             	test   %rax,%rax
    394e:	0f 84 cc 00 00 00    	je     3a20 <init_driver+0x147>
    3954:	49 89 e4             	mov    %rsp,%r12
    3957:	48 c7 04 24 00 00 00 	movq   $0x0,(%rsp)
    395e:	00 
    395f:	48 c7 44 24 08 00 00 	movq   $0x0,0x8(%rsp)
    3966:	00 00 
    3968:	66 c7 04 24 02 00    	movw   $0x2,(%rsp)
    396e:	48 63 50 14          	movslq 0x14(%rax),%rdx
    3972:	48 8b 40 18          	mov    0x18(%rax),%rax
    3976:	48 8d 7c 24 04       	lea    0x4(%rsp),%rdi
    397b:	48 8b 30             	mov    (%rax),%rsi
    397e:	e8 dd e7 ff ff       	callq  2160 <memmove@plt>
    3983:	66 c7 44 24 02 2c be 	movw   $0xbe2c,0x2(%rsp)
    398a:	ba 10 00 00 00       	mov    $0x10,%edx
    398f:	4c 89 e6             	mov    %r12,%rsi
    3992:	89 df                	mov    %ebx,%edi
    3994:	e8 17 e8 ff ff       	callq  21b0 <connect@plt>
    3999:	85 c0                	test   %eax,%eax
    399b:	0f 88 e7 00 00 00    	js     3a88 <init_driver+0x1af>
    39a1:	89 df                	mov    %ebx,%edi
    39a3:	e8 28 e7 ff ff       	callq  20d0 <close@plt>
    39a8:	66 c7 45 00 4f 4b    	movw   $0x4b4f,0x0(%rbp)
    39ae:	c6 45 02 00          	movb   $0x0,0x2(%rbp)
    39b2:	b8 00 00 00 00       	mov    $0x0,%eax
    39b7:	48 8b 54 24 18       	mov    0x18(%rsp),%rdx
    39bc:	64 48 2b 14 25 28 00 	sub    %fs:0x28,%rdx
    39c3:	00 00 
    39c5:	0f 85 e9 00 00 00    	jne    3ab4 <init_driver+0x1db>
    39cb:	48 83 c4 20          	add    $0x20,%rsp
    39cf:	5b                   	pop    %rbx
    39d0:	5d                   	pop    %rbp
    39d1:	41 5c                	pop    %r12
    39d3:	c3                   	retq   
    39d4:	48 b8 45 72 72 6f 72 	movabs $0x43203a726f727245,%rax
    39db:	3a 20 43 
    39de:	48 ba 6c 69 65 6e 74 	movabs $0x6e7520746e65696c,%rdx
    39e5:	20 75 6e 
    39e8:	48 89 45 00          	mov    %rax,0x0(%rbp)
    39ec:	48 89 55 08          	mov    %rdx,0x8(%rbp)
    39f0:	48 b8 61 62 6c 65 20 	movabs $0x206f7420656c6261,%rax
    39f7:	74 6f 20 
    39fa:	48 ba 63 72 65 61 74 	movabs $0x7320657461657263,%rdx
    3a01:	65 20 73 
    3a04:	48 89 45 10          	mov    %rax,0x10(%rbp)
    3a08:	48 89 55 18          	mov    %rdx,0x18(%rbp)
    3a0c:	c7 45 20 6f 63 6b 65 	movl   $0x656b636f,0x20(%rbp)
    3a13:	66 c7 45 24 74 00    	movw   $0x74,0x24(%rbp)
    3a19:	b8 ff ff ff ff       	mov    $0xffffffff,%eax
    3a1e:	eb 97                	jmp    39b7 <init_driver+0xde>
    3a20:	48 b8 45 72 72 6f 72 	movabs $0x44203a726f727245,%rax
    3a27:	3a 20 44 
    3a2a:	48 ba 4e 53 20 69 73 	movabs $0x6e7520736920534e,%rdx
    3a31:	20 75 6e 
    3a34:	48 89 45 00          	mov    %rax,0x0(%rbp)
    3a38:	48 89 55 08          	mov    %rdx,0x8(%rbp)
    3a3c:	48 b8 61 62 6c 65 20 	movabs $0x206f7420656c6261,%rax
    3a43:	74 6f 20 
    3a46:	48 ba 72 65 73 6f 6c 	movabs $0x2065766c6f736572,%rdx
    3a4d:	76 65 20 
    3a50:	48 89 45 10          	mov    %rax,0x10(%rbp)
    3a54:	48 89 55 18          	mov    %rdx,0x18(%rbp)
    3a58:	48 b8 73 65 72 76 65 	movabs $0x6120726576726573,%rax
    3a5f:	72 20 61 
    3a62:	48 89 45 20          	mov    %rax,0x20(%rbp)
    3a66:	c7 45 28 64 64 72 65 	movl   $0x65726464,0x28(%rbp)
    3a6d:	66 c7 45 2c 73 73    	movw   $0x7373,0x2c(%rbp)
    3a73:	c6 45 2e 00          	movb   $0x0,0x2e(%rbp)
    3a77:	89 df                	mov    %ebx,%edi
    3a79:	e8 52 e6 ff ff       	callq  20d0 <close@plt>
    3a7e:	b8 ff ff ff ff       	mov    $0xffffffff,%eax
    3a83:	e9 2f ff ff ff       	jmpq   39b7 <init_driver+0xde>
    3a88:	48 8d 15 a7 0c 00 00 	lea    0xca7(%rip),%rdx        # 4736 <array.0+0x556>
    3a8f:	48 8d 35 52 0c 00 00 	lea    0xc52(%rip),%rsi        # 46e8 <array.0+0x508>
    3a96:	48 89 ef             	mov    %rbp,%rdi
    3a99:	b8 00 00 00 00       	mov    $0x0,%eax
    3a9e:	e8 ed e6 ff ff       	callq  2190 <sprintf@plt>
    3aa3:	89 df                	mov    %ebx,%edi
    3aa5:	e8 26 e6 ff ff       	callq  20d0 <close@plt>
    3aaa:	b8 ff ff ff ff       	mov    $0xffffffff,%eax
    3aaf:	e9 03 ff ff ff       	jmpq   39b7 <init_driver+0xde>
    3ab4:	e8 e7 e5 ff ff       	callq  20a0 <__stack_chk_fail@plt>

0000000000003ab9 <driver_post>:
    3ab9:	53                   	push   %rbx
    3aba:	4c 89 c3             	mov    %r8,%rbx
    3abd:	85 c9                	test   %ecx,%ecx
    3abf:	75 17                	jne    3ad8 <driver_post+0x1f>
    3ac1:	48 85 ff             	test   %rdi,%rdi
    3ac4:	74 05                	je     3acb <driver_post+0x12>
    3ac6:	80 3f 00             	cmpb   $0x0,(%rdi)
    3ac9:	75 31                	jne    3afc <driver_post+0x43>
    3acb:	66 c7 03 4f 4b       	movw   $0x4b4f,(%rbx)
    3ad0:	c6 43 02 00          	movb   $0x0,0x2(%rbx)
    3ad4:	89 c8                	mov    %ecx,%eax
    3ad6:	5b                   	pop    %rbx
    3ad7:	c3                   	retq   
    3ad8:	48 89 d6             	mov    %rdx,%rsi
    3adb:	48 8d 3d 62 0c 00 00 	lea    0xc62(%rip),%rdi        # 4744 <array.0+0x564>
    3ae2:	b8 00 00 00 00       	mov    $0x0,%eax
    3ae7:	e8 c4 e5 ff ff       	callq  20b0 <printf@plt>
    3aec:	66 c7 03 4f 4b       	movw   $0x4b4f,(%rbx)
    3af1:	c6 43 02 00          	movb   $0x0,0x2(%rbx)
    3af5:	b8 00 00 00 00       	mov    $0x0,%eax
    3afa:	eb da                	jmp    3ad6 <driver_post+0x1d>
    3afc:	41 50                	push   %r8
    3afe:	52                   	push   %rdx
    3aff:	4c 8d 0d 55 0c 00 00 	lea    0xc55(%rip),%r9        # 475b <array.0+0x57b>
    3b06:	49 89 f0             	mov    %rsi,%r8
    3b09:	48 89 f9             	mov    %rdi,%rcx
    3b0c:	48 8d 15 50 0c 00 00 	lea    0xc50(%rip),%rdx        # 4763 <array.0+0x583>
    3b13:	be be 2c 00 00       	mov    $0x2cbe,%esi
    3b18:	48 8d 3d 17 0c 00 00 	lea    0xc17(%rip),%rdi        # 4736 <array.0+0x556>
    3b1f:	e8 73 f5 ff ff       	callq  3097 <submitr>
    3b24:	48 83 c4 10          	add    $0x10,%rsp
    3b28:	eb ac                	jmp    3ad6 <driver_post+0x1d>
    3b2a:	66 0f 1f 44 00 00    	nopw   0x0(%rax,%rax,1)

0000000000003b30 <__libc_csu_init>:
    3b30:	f3 0f 1e fa          	repz nop %edx
    3b34:	41 57                	push   %r15
    3b36:	4c 8d 3d ab 22 00 00 	lea    0x22ab(%rip),%r15        # 5de8 <__frame_dummy_init_array_entry>
    3b3d:	41 56                	push   %r14
    3b3f:	49 89 d6             	mov    %rdx,%r14
    3b42:	41 55                	push   %r13
    3b44:	49 89 f5             	mov    %rsi,%r13
    3b47:	41 54                	push   %r12
    3b49:	41 89 fc             	mov    %edi,%r12d
    3b4c:	55                   	push   %rbp
    3b4d:	48 8d 2d 9c 22 00 00 	lea    0x229c(%rip),%rbp        # 5df0 <__init_array_end>
    3b54:	53                   	push   %rbx
    3b55:	4c 29 fd             	sub    %r15,%rbp
    3b58:	48 83 ec 08          	sub    $0x8,%rsp
    3b5c:	e8 9f e4 ff ff       	callq  2000 <_init>
    3b61:	48 c1 fd 03          	sar    $0x3,%rbp
    3b65:	74 1f                	je     3b86 <__libc_csu_init+0x56>
    3b67:	31 db                	xor    %ebx,%ebx
    3b69:	0f 1f 80 00 00 00 00 	nopl   0x0(%rax)
    3b70:	4c 89 f2             	mov    %r14,%rdx
    3b73:	4c 89 ee             	mov    %r13,%rsi
    3b76:	44 89 e7             	mov    %r12d,%edi
    3b79:	41 ff 14 df          	callq  *(%r15,%rbx,8)
    3b7d:	48 83 c3 01          	add    $0x1,%rbx
    3b81:	48 39 dd             	cmp    %rbx,%rbp
    3b84:	75 ea                	jne    3b70 <__libc_csu_init+0x40>
    3b86:	48 83 c4 08          	add    $0x8,%rsp
    3b8a:	5b                   	pop    %rbx
    3b8b:	5d                   	pop    %rbp
    3b8c:	41 5c                	pop    %r12
    3b8e:	41 5d                	pop    %r13
    3b90:	41 5e                	pop    %r14
    3b92:	41 5f                	pop    %r15
    3b94:	c3                   	retq   
    3b95:	66 66 2e 0f 1f 84 00 	data16 nopw %cs:0x0(%rax,%rax,1)
    3b9c:	00 00 00 00 

0000000000003ba0 <__libc_csu_fini>:
    3ba0:	f3 0f 1e fa          	repz nop %edx
    3ba4:	c3                   	retq   

Disassembly of section .fini:

0000000000003ba8 <_fini>:
    3ba8:	f3 0f 1e fa          	repz nop %edx
    3bac:	48 83 ec 08          	sub    $0x8,%rsp
    3bb0:	48 83 c4 08          	add    $0x8,%rsp
    3bb4:	c3                   	retq   
